(dp1
S'layout'
p2
(ilayout
Layout
p3
(dp4
S'capsules'
p5
(lp6
(I18
I1
tp7
a(I1
I9
tp8
asS'numGhosts'
p9
I2
sS'food'
p10
(igame
Grid
p11
(dp12
S'CELLS_PER_INT'
p13
I30
sS'width'
p14
I20
sS'data'
p15
(lp16
(lp17
I00
aI00
aI00
aI00
aI00
aI00
aI00
aI00
aI00
aI00
aI00
aa(lp18
I00
aI01
aI01
aI01
aI01
aI01
aI01
aI01
aI01
aI00
aI00
aa(lp19
I00
aI01
aI00
aI00
aI00
aI01
aI00
aI00
aI00
aI01
aI00
aa(lp20
I00
aI01
aI00
aI01
aI01
aI01
aI01
aI01
aI00
aI01
aI00
aa(lp21
I00
aI01
aI01
aI01
aI00
aI01
aI00
aI01
aI01
aI01
aI00
aa(lp22
I00
aI00
aI00
aI01
aI00
aI01
aI00
aI01
aI00
aI00
aI00
aa(lp23
I00
aI01
aI01
aI01
aI01
aI01
aI01
aI01
aI01
aI01
aI00
aa(lp24
I00
aI01
aI00
aI01
aI00
aI00
aI00
aI01
aI00
aI01
aI00
aa(lp25
I00
aI01
aI00
aI01
aI00
aI00
aI00
aI01
aI00
aI01
aI00
aa(lp26
I00
aI00
aI00
aI01
aI00
aI00
aI00
aI01
aI00
aI01
aI00
aa(lp27
I00
aI01
aI00
aI01
aI00
aI00
aI00
aI01
aI00
aI01
aI00
aa(lp28
I00
aI01
aI00
aI01
aI00
aI00
aI00
aI01
aI00
aI01
aI00
aa(lp29
I00
aI01
aI00
aI01
aI00
aI00
aI00
aI01
aI00
aI01
aI00
aa(lp30
I00
aI01
aI01
aI01
aI01
aI01
aI01
aI01
aI01
aI01
aI00
aa(lp31
I00
aI00
aI00
aI01
aI00
aI01
aI00
aI01
aI00
aI00
aI00
aa(lp32
I00
aI01
aI01
aI01
aI00
aI01
aI00
aI01
aI01
aI01
aI00
aa(lp33
I00
aI01
aI00
aI01
aI01
aI01
aI01
aI01
aI00
aI01
aI00
aa(lp34
I00
aI01
aI00
aI00
aI00
aI01
aI00
aI00
aI00
aI01
aI00
aa(lp35
I00
aI00
aI01
aI01
aI01
aI01
aI01
aI01
aI01
aI01
aI00
aa(lp36
I00
aI00
aI00
aI00
aI00
aI00
aI00
aI00
aI00
aI00
aI00
aasS'height'
p37
I11
sbsS'agentPositions'
p38
(lp39
(I01
(I9
I1
tp40
tp41
a(I00
(I8
I5
tp42
tp43
a(I00
(I11
I5
tp44
tp45
asg37
I11
sg14
I20
sS'walls'
p46
(igame
Grid
p47
(dp48
g13
I30
sg14
I20
sg15
(lp49
(lp50
I01
aI01
aI01
aI01
aI01
aI01
aI01
aI01
aI01
aI01
aI01
aa(lp51
I01
aI00
aI00
aI00
aI00
aI00
aI00
aI00
aI00
aI00
aI01
aa(lp52
I01
aI00
aI01
aI01
aI01
aI00
aI01
aI01
aI01
aI00
aI01
aa(lp53
I01
aI00
aI01
aI00
aI00
aI00
aI00
aI00
aI01
aI00
aI01
aa(lp54
I01
aI00
aI00
aI00
aI01
aI00
aI01
aI00
aI00
aI00
aI01
aa(lp55
I01
aI01
aI01
aI00
aI01
aI00
aI01
aI00
aI01
aI01
aI01
aa(lp56
I01
aI00
aI00
aI00
aI00
aI00
aI00
aI00
aI00
aI00
aI01
aa(lp57
I01
aI00
aI01
aI00
aI01
aI01
aI01
aI00
aI01
aI00
aI01
aa(lp58
I01
aI00
aI01
aI00
aI01
aI00
aI01
aI00
aI01
aI00
aI01
aa(lp59
I01
aI00
aI01
aI00
aI01
aI00
aI00
aI00
aI01
aI00
aI01
aa(lp60
I01
aI00
aI01
aI00
aI01
aI00
aI00
aI00
aI01
aI00
aI01
aa(lp61
I01
aI00
aI01
aI00
aI01
aI00
aI01
aI00
aI01
aI00
aI01
aa(lp62
I01
aI00
aI01
aI00
aI01
aI01
aI01
aI00
aI01
aI00
aI01
aa(lp63
I01
aI00
aI00
aI00
aI00
aI00
aI00
aI00
aI00
aI00
aI01
aa(lp64
I01
aI01
aI01
aI00
aI01
aI00
aI01
aI00
aI01
aI01
aI01
aa(lp65
I01
aI00
aI00
aI00
aI01
aI00
aI01
aI00
aI00
aI00
aI01
aa(lp66
I01
aI00
aI01
aI00
aI00
aI00
aI00
aI00
aI01
aI00
aI01
aa(lp67
I01
aI00
aI01
aI01
aI01
aI00
aI01
aI01
aI01
aI00
aI01
aa(lp68
I01
aI00
aI00
aI00
aI00
aI00
aI00
aI00
aI00
aI00
aI01
aa(lp69
I01
aI01
aI01
aI01
aI01
aI01
aI01
aI01
aI01
aI01
aI01
aasg37
I11
sbsS'totalFood'
p70
I97
sS'layoutText'
p71
(lp72
S'%%%%%%%%%%%%%%%%%%%%'
p73
aS'%o...%........%....%'
p74
aS'%.%%.%.%%%%%%.%.%%.%'
p75
aS'%.%..............%.%'
p76
aS'%.%.%%.%%  %%.%%.%.%'
p77
aS'%......%G  G%......%'
p78
aS'%.%.%%.%%%%%%.%%.%.%'
p79
aS'%.%..............%.%'
p80
aS'%.%%.%.%%%%%%.%.%%.%'
p81
aS'%....%...P....%...o%'
p82
aS'%%%%%%%%%%%%%%%%%%%%'
p83
asbsS'actions'
p84
(lp85
(I0
S'East'
p86
tp87
a(I1
g86
tp88
a(I2
S'West'
p89
tp90
a(I0
g86
tp91
a(I1
S'North'
p92
tp93
a(I2
g92
tp94
a(I0
g86
tp95
a(I1
g86
tp96
a(I2
g92
tp97
a(I0
g86
tp98
a(I1
S'South'
p99
tp100
a(I2
g86
tp101
a(I0
g92
tp102
a(I1
g86
tp103
a(I2
g86
tp104
a(I0
g92
tp105
a(I1
g89
tp106
a(I2
g86
tp107
a(I0
g92
tp108
a(I1
g89
tp109
a(I2
g99
tp110
a(I0
S'Stop'
p111
tp112
a(I1
g92
tp113
a(I2
g99
tp114
a(I0
g99
tp115
a(I1
g86
tp116
a(I2
g86
tp117
a(I0
g89
tp118
a(I1
g99
tp119
a(I2
g86
tp120
a(I0
g89
tp121
a(I1
g89
tp122
a(I2
g86
tp123
a(I0
g89
tp124
a(I1
g89
tp125
a(I2
g92
tp126
a(I0
g89
tp127
a(I1
g86
tp128
a(I2
g92
tp129
a(I0
g89
tp130
a(I1
g92
tp131
a(I2
g89
tp132
a(I0
g89
tp133
a(I1
g86
tp134
a(I2
g92
tp135
a(I0
g89
tp136
a(I1
g99
tp137
a(I2
g92
tp138
a(I0
g99
tp139
a(I1
g86
tp140
a(I2
g86
tp141
a(I0
g99
tp142
a(I1
g89
tp143
a(I2
g86
tp144
a(I0
g86
tp145
a(I1
g92
tp146
a(I2
g86
tp147
a(I0
g86
tp148
a(I1
g89
tp149
a(I2
g99
tp150
a(I0
g89
tp151
a(I1
g99
tp152
a(I2
g99
tp153
a(I0
g89
tp154
a(I1
g89
tp155
a(I2
g99
tp156
a(I0
g92
tp157
a(I1
g86
tp158
a(I2
g99
tp159
a(I0
g92
tp160
a(I1
g92
tp161
a(I2
g99
tp162
a(I0
g89
tp163
a(I1
g92
tp164
a(I2
g99
tp165
a(I0
g89
tp166
a(I1
g86
tp167
a(I2
g99
tp168
a(I0
g99
tp169
a(I1
g86
tp170
a(I2
g99
tp171
a(I0
g99
tp172
a(I1
g86
tp173
a(I2
g89
tp174
a(I0
g89
tp175
a(I1
g86
tp176
a(I2
g89
tp177
a(I0
g89
tp178
a(I1
g92
tp179
a(I2
g89
tp180
a(I0
g89
tp181
a(I1
g92
tp182
a(I2
g92
tp183
a(I0
g92
tp184
a(I1
g89
tp185
a(I2
g92
tp186
a(I0
g92
tp187
a(I1
g89
tp188
a(I2
g86
tp189
a(I0
g92
tp190
a(I1
g89
tp191
a(I2
g92
tp192
a(I0
g92
tp193
a(I1
g89
tp194
a(I2
g92
tp195
a(I0
g92
tp196
a(I1
g89
tp197
a(I2
g89
tp198
a(I0
g92
tp199
a(I1
g89
tp200
a(I2
g89
tp201
a(I0
g92
tp202
a(I1
g89
tp203
a(I2
g89
tp204
a(I0
g92
tp205
a(I1
g99
tp206
a(I2
g92
tp207
a(I0
g86
tp208
a(I1
g99
tp209
a(I2
g92
tp210
a(I0
g86
tp211
a(I1
g99
tp212
a(I2
g92
tp213
a(I0
g86
tp214
a(I1
g99
tp215
a(I2
g92
tp216
a(I0
g99
tp217
a(I1
g99
tp218
a(I2
g89
tp219
a(I0
g99
tp220
a(I1
g99
tp221
a(I2
g89
tp222
a(I0
g86
tp223
a(I1
g99
tp224
a(I2
g89
tp225
a(I0
g89
tp226
a(I1
g99
tp227
a(I2
g89
tp228
a(I0
g89
tp229
a(I1
g89
tp230
a(I2
g89
tp231
a(I0
g99
tp232
a(I1
g89
tp233
a(I2
g89
tp234
a(I0
g99
tp235
a(I1
g89
tp236
a(I2
g89
tp237
a(I0
g89
tp238
a(I1
g89
tp239
a(I2
g89
tp240
a(I0
g111
tp241
a(I1
g89
tp242
a(I2
g89
tp243
a(I0
g111
tp244
a(I1
g89
tp245
a(I2
g89
tp246
a(I0
g89
tp247
a(I1
g92
tp248
a(I2
g89
tp249
a(I0
g86
tp250
a(I1
g92
tp251
a(I2
g89
tp252
a(I0
g111
tp253
a(I1
g92
tp254
a(I2
g89
tp255
a(I0
g86
tp256
a(I1
g92
tp257
a(I2
g89
tp258
a(I0
g86
tp259
a(I1
g86
tp260
a(I2
g99
tp261
a(I0
g86
tp262
a(I1
g86
tp263
a(I2
g99
tp264
a(I0
g111
tp265
a(I1
g86
tp266
a(I2
g99
tp267
a(I0
g111
tp268
a(I1
g86
tp269
a(I2
g99
tp270
a(I0
g89
tp271
a(I1
g86
tp272
a(I2
g99
tp273
a(I0
g89
tp274
a(I1
g86
tp275
a(I2
g99
tp276
a(I0
g99
tp277
a(I1
g99
tp278
a(I2
g99
tp279
a(I0
g99
tp280
a(I1
g99
tp281
a(I2
g99
tp282
a(I0
g86
tp283
a(I1
g99
tp284
a(I2
g89
tp285
a(I0
g111
tp286
a(I1
g99
tp287
a(I2
g89
tp288
a(I0
g89
tp289
a(I1
g99
tp290
a(I2
g89
tp291
a(I0
g111
tp292
a(I1
g99
tp293
a(I2
g89
tp294
a(I0
g92
tp295
a(I1
g99
tp296
a(I2
g89
tp297
a(I0
g92
tp298
a(I1
g99
tp299
a(I2
g89
tp300
a(I0
g86
tp301
a(I1
g99
tp302
a(I2
g92
tp303
a(I0
g86
tp304
a(I1
g99
tp305
a(I2
g92
tp306
a(I0
g86
tp307
a(I1
g99
tp308
a(I2
g92
tp309
a(I0
g99
tp310
a(I1
g99
tp311
a(I2
g92
tp312
a(I0
g92
tp313
a(I1
g86
tp314
a(I2
g86
tp315
a(I0
g92
tp316
a(I1
g86
tp317
a(I2
g86
tp318
a(I0
g92
tp319
a(I1
g86
tp320
a(I2
g86
tp321
a(I0
g92
tp322
a(I1
g86
tp323
a(I2
g86
tp324
a(I0
g92
tp325
a(I1
g86
tp326
a(I2
g86
tp327
a(I0
g86
tp328
a(I1
g86
tp329
a(I2
g92
tp330
a(I0
g86
tp331
a(I1
g86
tp332
a(I2
g92
tp333
a(I0
g86
tp334
a(I1
g86
tp335
a(I2
g89
tp336
a(I0
g86
tp337
a(I1
g86
tp338
a(I2
g89
tp339
a(I0
g86
tp340
a(I1
g92
tp341
a(I2
g89
tp342
a(I0
g86
tp343
a(I1
g92
tp344
a(I2
g99
tp345
a(I0
g86
tp346
a(I1
g92
tp347
a(I2
g99
tp348
a(I0
g99
tp349
a(I1
g92
tp350
a(I2
g86
tp351
a(I0
g99
tp352
a(I1
g92
tp353
a(I2
g86
tp354
a(I0
g86
tp355
a(I1
g92
tp356
a(I2
g86
tp357
a(I0
g86
tp358
a(I1
g89
tp359
a(I2
g99
tp360
a(I0
g92
tp361
a(I1
g89
tp362
a(I2
g99
tp363
a(I0
g92
tp364
a(I1
g89
tp365
a(I2
g86
tp366
a(I0
g86
tp367
a(I1
g89
tp368
a(I2
g86
tp369
a(I0
g86
tp370
a(I1
g89
tp371
a(I2
g86
tp372
a(I0
g86
tp373
a(I1
g89
tp374
a(I2
g86
tp375
a(I0
g99
tp376
a(I1
g89
tp377
a(I2
g86
tp378
a(I0
g99
tp379
a(I1
g99
tp380
a(I2
g86
tp381
a(I0
g99
tp382
a(I1
g99
tp383
a(I2
g86
tp384
a(I0
g99
tp385
a(I1
g99
tp386
a(I2
g99
tp387
a(I0
g89
tp388
a(I1
g99
tp389
a(I2
g99
tp390
a(I0
g89
tp391
a(I1
g89
tp392
a(I2
g89
tp393
a(I0
g99
tp394
a(I1
g89
tp395
a(I2
g89
tp396
a(I0
g99
tp397
a(I1
g89
tp398
a(I2
g89
tp399
a(I0
g89
tp400
a(I1
g92
tp401
a(I2
g89
tp402
a(I0
g89
tp403
a(I1
g92
tp404
a(I2
g89
tp405
a(I0
g86
tp406
a(I1
g86
tp407
a(I2
g89
tp408
a(I0
g99
tp409
a(I1
g86
tp410
a(I2
g89
tp411
a(I0
g99
tp412
a(I1
g86
tp413
a(I2
g92
tp414
a(I0
g86
tp415
a(I1
g99
tp416
a(I2
g92
tp417
a(I0
g86
tp418
a(I1
g99
tp419
a(I2
g92
tp420
a(I0
g86
tp421
a(I1
g89
tp422
a(I2
g92
tp423
a(I0
g92
tp424
a(I1
g89
tp425
a(I2
g92
tp426
a(I0
g92
tp427
a(I1
g89
tp428
a(I2
g92
tp429
a(I0
g92
tp430
a(I1
g89
tp431
a(I2
g92
tp432
a(I0
g92
tp433
a(I1
g89
tp434
a(I2
g92
tp435
a(I0
g89
tp436
a(I1
g89
tp437
a(I2
g92
tp438
a(I0
g89
tp439
a(I1
g92
tp440
a(I2
g92
tp441
a(I0
g89
tp442
a(I1
g92
tp443
a(I2
g92
tp444
a(I0
g89
tp445
a(I1
g92
tp446
a(I2
g92
tp447
a(I0
g89
tp448
a(I1
g92
tp449
a(I2
g92
tp450
a(I0
g92
tp451
a(I1
g86
tp452
a(I2
g86
tp453
a(I0
g92
tp454
a(I1
g86
tp455
a(I2
g86
tp456
a(I0
g89
tp457
a(I1
g86
tp458
a(I2
g86
tp459
a(I0
g89
tp460
a(I1
g86
tp461
a(I2
g86
tp462
a(I0
g89
tp463
a(I1
g86
tp464
a(I2
g86
tp465
a(I0
g89
tp466
a(I1
g86
tp467
a(I2
g86
tp468
a(I0
g89
tp469
a(I1
g92
tp470
a(I2
g86
tp471
a(I0
g89
tp472
a(I1
g92
tp473
a(I2
g86
tp474
a(I0
g86
tp475
a(I1
g92
tp476
a(I2
g86
tp477
a(I0
g86
tp478
a(I1
g92
tp479
a(I2
g86
tp480
a(I0
g86
tp481
a(I1
g92
tp482
a(I2
g86
tp483
a(I0
g86
tp484
a(I1
g92
tp485
a(I2
g86
tp486
a(I0
g86
tp487
a(I1
g92
tp488
a(I2
g86
tp489
a(I0
g86
tp490
a(I1
g92
tp491
a(I2
g86
tp492
a(I0
g86
tp493
a(I1
g86
tp494
a(I2
g99
tp495
a(I0
g86
tp496
a(I1
g86
tp497
a(I2
g99
tp498
a(I0
g86
tp499
a(I1
g86
tp500
a(I2
g99
tp501
a(I0
g99
tp502
as.