(dp1
S'layout'
p2
(ilayout
Layout
p3
(dp4
S'capsules'
p5
(lp6
(I18
I1
tp7
a(I1
I9
tp8
asS'numGhosts'
p9
I2
sS'food'
p10
(igame
Grid
p11
(dp12
S'CELLS_PER_INT'
p13
I30
sS'width'
p14
I20
sS'data'
p15
(lp16
(lp17
I00
aI00
aI00
aI00
aI00
aI00
aI00
aI00
aI00
aI00
aI00
aa(lp18
I00
aI01
aI01
aI01
aI01
aI01
aI01
aI01
aI01
aI00
aI00
aa(lp19
I00
aI01
aI00
aI00
aI00
aI01
aI00
aI00
aI00
aI01
aI00
aa(lp20
I00
aI01
aI00
aI01
aI01
aI01
aI01
aI01
aI00
aI01
aI00
aa(lp21
I00
aI01
aI01
aI01
aI00
aI01
aI00
aI01
aI01
aI01
aI00
aa(lp22
I00
aI00
aI00
aI01
aI00
aI01
aI00
aI01
aI00
aI00
aI00
aa(lp23
I00
aI01
aI01
aI01
aI01
aI01
aI01
aI01
aI01
aI01
aI00
aa(lp24
I00
aI01
aI00
aI01
aI00
aI00
aI00
aI01
aI00
aI01
aI00
aa(lp25
I00
aI01
aI00
aI01
aI00
aI00
aI00
aI01
aI00
aI01
aI00
aa(lp26
I00
aI00
aI00
aI01
aI00
aI00
aI00
aI01
aI00
aI01
aI00
aa(lp27
I00
aI01
aI00
aI01
aI00
aI00
aI00
aI01
aI00
aI01
aI00
aa(lp28
I00
aI01
aI00
aI01
aI00
aI00
aI00
aI01
aI00
aI01
aI00
aa(lp29
I00
aI01
aI00
aI01
aI00
aI00
aI00
aI01
aI00
aI01
aI00
aa(lp30
I00
aI01
aI01
aI01
aI01
aI01
aI01
aI01
aI01
aI01
aI00
aa(lp31
I00
aI00
aI00
aI01
aI00
aI01
aI00
aI01
aI00
aI00
aI00
aa(lp32
I00
aI01
aI01
aI01
aI00
aI01
aI00
aI01
aI01
aI01
aI00
aa(lp33
I00
aI01
aI00
aI01
aI01
aI01
aI01
aI01
aI00
aI01
aI00
aa(lp34
I00
aI01
aI00
aI00
aI00
aI01
aI00
aI00
aI00
aI01
aI00
aa(lp35
I00
aI00
aI01
aI01
aI01
aI01
aI01
aI01
aI01
aI01
aI00
aa(lp36
I00
aI00
aI00
aI00
aI00
aI00
aI00
aI00
aI00
aI00
aI00
aasS'height'
p37
I11
sbsS'agentPositions'
p38
(lp39
(I01
(I9
I1
tp40
tp41
a(I00
(I8
I5
tp42
tp43
a(I00
(I11
I5
tp44
tp45
asg37
I11
sg14
I20
sS'walls'
p46
(igame
Grid
p47
(dp48
g13
I30
sg14
I20
sg15
(lp49
(lp50
I01
aI01
aI01
aI01
aI01
aI01
aI01
aI01
aI01
aI01
aI01
aa(lp51
I01
aI00
aI00
aI00
aI00
aI00
aI00
aI00
aI00
aI00
aI01
aa(lp52
I01
aI00
aI01
aI01
aI01
aI00
aI01
aI01
aI01
aI00
aI01
aa(lp53
I01
aI00
aI01
aI00
aI00
aI00
aI00
aI00
aI01
aI00
aI01
aa(lp54
I01
aI00
aI00
aI00
aI01
aI00
aI01
aI00
aI00
aI00
aI01
aa(lp55
I01
aI01
aI01
aI00
aI01
aI00
aI01
aI00
aI01
aI01
aI01
aa(lp56
I01
aI00
aI00
aI00
aI00
aI00
aI00
aI00
aI00
aI00
aI01
aa(lp57
I01
aI00
aI01
aI00
aI01
aI01
aI01
aI00
aI01
aI00
aI01
aa(lp58
I01
aI00
aI01
aI00
aI01
aI00
aI01
aI00
aI01
aI00
aI01
aa(lp59
I01
aI00
aI01
aI00
aI01
aI00
aI00
aI00
aI01
aI00
aI01
aa(lp60
I01
aI00
aI01
aI00
aI01
aI00
aI00
aI00
aI01
aI00
aI01
aa(lp61
I01
aI00
aI01
aI00
aI01
aI00
aI01
aI00
aI01
aI00
aI01
aa(lp62
I01
aI00
aI01
aI00
aI01
aI01
aI01
aI00
aI01
aI00
aI01
aa(lp63
I01
aI00
aI00
aI00
aI00
aI00
aI00
aI00
aI00
aI00
aI01
aa(lp64
I01
aI01
aI01
aI00
aI01
aI00
aI01
aI00
aI01
aI01
aI01
aa(lp65
I01
aI00
aI00
aI00
aI01
aI00
aI01
aI00
aI00
aI00
aI01
aa(lp66
I01
aI00
aI01
aI00
aI00
aI00
aI00
aI00
aI01
aI00
aI01
aa(lp67
I01
aI00
aI01
aI01
aI01
aI00
aI01
aI01
aI01
aI00
aI01
aa(lp68
I01
aI00
aI00
aI00
aI00
aI00
aI00
aI00
aI00
aI00
aI01
aa(lp69
I01
aI01
aI01
aI01
aI01
aI01
aI01
aI01
aI01
aI01
aI01
aasg37
I11
sbsS'totalFood'
p70
I97
sS'layoutText'
p71
(lp72
S'%%%%%%%%%%%%%%%%%%%%'
p73
aS'%o...%........%....%'
p74
aS'%.%%.%.%%%%%%.%.%%.%'
p75
aS'%.%..............%.%'
p76
aS'%.%.%%.%%  %%.%%.%.%'
p77
aS'%......%G  G%......%'
p78
aS'%.%.%%.%%%%%%.%%.%.%'
p79
aS'%.%..............%.%'
p80
aS'%.%%.%.%%%%%%.%.%%.%'
p81
aS'%....%...P....%...o%'
p82
aS'%%%%%%%%%%%%%%%%%%%%'
p83
asbsS'actions'
p84
(lp85
(I0
S'East'
p86
tp87
a(I1
g86
tp88
a(I2
S'West'
p89
tp90
a(I0
g86
tp91
a(I1
g86
tp92
a(I2
S'North'
p93
tp94
a(I0
g86
tp95
a(I1
g93
tp96
a(I2
g93
tp97
a(I0
g86
tp98
a(I1
g93
tp99
a(I2
g86
tp100
a(I0
g93
tp101
a(I1
g86
tp102
a(I2
g86
tp103
a(I0
g93
tp104
a(I1
g86
tp105
a(I2
g86
tp106
a(I0
g86
tp107
a(I1
g86
tp108
a(I2
g93
tp109
a(I0
g86
tp110
a(I1
g93
tp111
a(I2
g93
tp112
a(I0
S'South'
p113
tp114
a(I1
g93
tp115
a(I2
g89
tp116
a(I0
g113
tp117
a(I1
g89
tp118
a(I2
g89
tp119
a(I0
g93
tp120
a(I1
g89
tp121
a(I2
g89
tp122
a(I0
g93
tp123
a(I1
g89
tp124
a(I2
g89
tp125
a(I0
g86
tp126
a(I1
g89
tp127
a(I2
g89
tp128
a(I0
g93
tp129
a(I1
g89
tp130
a(I2
g89
tp131
a(I0
g93
tp132
a(I1
g89
tp133
a(I2
g89
tp134
a(I0
g89
tp135
a(I1
g89
tp136
a(I2
g113
tp137
a(I0
g89
tp138
a(I1
g113
tp139
a(I2
g113
tp140
a(I0
g89
tp141
a(I1
g113
tp142
a(I2
g89
tp143
a(I0
g93
tp144
a(I1
g113
tp145
a(I2
g89
tp146
a(I0
g93
tp147
a(I1
g113
tp148
a(I2
g89
tp149
a(I0
g93
tp150
a(I1
g89
tp151
a(I2
g113
tp152
a(I0
g93
tp153
a(I1
g89
tp154
a(I2
g113
tp155
a(I0
g89
tp156
a(I1
g89
tp157
a(I2
g86
tp158
a(I0
g89
tp159
a(I1
g113
tp160
a(I2
g86
tp161
a(I0
g89
tp162
a(I1
g113
tp163
a(I2
g86
tp164
a(I0
g89
tp165
a(I1
g86
tp166
a(I2
g113
tp167
a(I0
g89
tp168
a(I1
g113
tp169
a(I2
g113
tp170
a(I0
g89
tp171
a(I1
g113
tp172
a(I2
g86
tp173
a(I0
g89
tp174
a(I1
g89
tp175
a(I2
g86
tp176
a(I0
g113
tp177
a(I1
g89
tp178
a(I2
g86
tp179
a(I0
g113
tp180
a(I1
g89
tp181
a(I2
g86
tp182
a(I0
g89
tp183
a(I1
g93
tp184
a(I2
g86
tp185
a(I0
g89
tp186
a(I1
g93
tp187
a(I2
g86
tp188
a(I0
g93
tp189
a(I1
g93
tp190
a(I2
g86
tp191
a(I0
g93
tp192
a(I1
g93
tp193
a(I2
g93
tp194
a(I0
g89
tp195
a(I1
g86
tp196
a(I2
g93
tp197
a(I0
g89
tp198
a(I1
g86
tp199
a(I2
g93
tp200
a(I0
g89
tp201
a(I1
g113
tp202
a(I2
g93
tp203
a(I0
g113
tp204
a(I1
g113
tp205
a(I2
g93
tp206
a(I0
g113
tp207
a(I1
g113
tp208
a(I2
g89
tp209
a(I0
g113
tp210
a(I1
g113
tp211
a(I2
g89
tp212
a(I0
S'Stop'
p213
tp214
a(I1
g86
tp215
a(I2
g89
tp216
a(I0
g113
tp217
a(I1
g86
tp218
a(I2
g89
tp219
a(I0
g86
tp220
a(I1
g86
tp221
a(I2
g89
tp222
a(I0
g86
tp223
a(I1
g86
tp224
a(I2
g89
tp225
a(I0
g86
tp226
a(I1
g86
tp227
a(I2
g113
tp228
a(I0
g86
tp229
a(I1
g86
tp230
a(I2
g113
tp231
a(I0
g86
tp232
a(I1
g113
tp233
a(I2
g89
tp234
a(I0
g93
tp235
a(I1
g113
tp236
a(I2
g89
tp237
a(I0
g93
tp238
a(I1
g113
tp239
a(I2
g93
tp240
a(I0
g86
tp241
a(I1
g113
tp242
a(I2
g93
tp243
a(I0
g213
tp244
a(I1
g86
tp245
a(I2
g86
tp246
a(I0
g86
tp247
a(I1
g86
tp248
a(I2
g86
tp249
a(I0
g213
tp250
a(I1
g86
tp251
a(I2
g86
tp252
a(I0
g86
tp253
a(I1
g86
tp254
a(I2
g86
tp255
a(I0
g213
tp256
a(I1
g86
tp257
a(I2
g86
tp258
a(I0
g86
tp259
a(I1
g86
tp260
a(I2
g86
tp261
a(I0
g213
tp262
a(I1
g86
tp263
a(I2
g86
tp264
a(I0
g86
tp265
a(I1
g86
tp266
a(I2
g86
tp267
a(I0
g213
tp268
a(I1
g86
tp269
a(I2
g86
tp270
a(I0
g86
tp271
a(I1
g86
tp272
a(I2
g86
tp273
a(I0
g213
tp274
a(I1
g86
tp275
a(I2
g86
tp276
a(I0
g86
tp277
a(I1
g86
tp278
a(I2
g86
tp279
a(I0
g213
tp280
a(I1
g86
tp281
a(I2
g93
tp282
a(I0
g86
tp283
a(I1
g86
tp284
a(I2
g93
tp285
a(I0
g213
tp286
a(I1
g93
tp287
a(I2
g93
tp288
a(I0
g86
tp289
a(I1
g93
tp290
a(I2
g93
tp291
a(I0
g86
tp292
a(I1
g93
tp293
a(I2
g86
tp294
a(I0
g113
tp295
a(I1
g93
tp296
a(I2
g86
tp297
a(I0
g113
tp298
a(I1
g89
tp299
a(I2
g86
tp300
a(I0
g86
tp301
a(I1
g89
tp302
a(I2
g86
tp303
a(I0
g86
tp304
a(I1
g89
tp305
a(I2
g86
tp306
a(I0
g113
tp307
a(I1
g89
tp308
a(I2
g86
tp309
a(I0
g113
tp310
a(I1
g89
tp311
a(I2
g113
tp312
a(I0
g113
tp313
a(I1
g89
tp314
a(I2
g113
tp315
a(I0
g113
tp316
a(I1
g89
tp317
a(I2
g113
tp318
a(I0
g89
tp319
a(I1
g89
tp320
a(I2
g113
tp321
a(I0
g89
tp322
a(I1
g89
tp323
a(I2
g113
tp324
a(I0
g89
tp325
a(I1
g89
tp326
a(I2
g113
tp327
a(I0
g93
tp328
a(I1
g89
tp329
a(I2
g113
tp330
a(I0
g93
tp331
a(I1
g89
tp332
a(I2
g113
tp333
a(I0
g89
tp334
a(I1
g89
tp335
a(I2
g89
tp336
a(I0
g89
tp337
a(I1
g89
tp338
a(I2
g89
tp339
a(I0
g89
tp340
a(I1
g113
tp341
a(I2
g89
tp342
a(I0
g89
tp343
a(I1
g113
tp344
a(I2
g89
tp345
a(I0
g89
tp346
a(I1
g113
tp347
a(I2
g113
tp348
a(I0
g89
tp349
a(I1
g113
tp350
a(I2
g113
tp351
a(I0
g89
tp352
a(I1
g86
tp353
a(I2
g113
tp354
a(I0
g89
tp355
a(I1
g86
tp356
a(I2
g113
tp357
a(I0
g89
tp358
a(I1
g86
tp359
a(I2
g89
tp360
a(I0
g93
tp361
a(I1
g86
tp362
a(I2
g89
tp363
a(I0
g113
tp364
a(I1
g86
tp365
a(I2
g113
tp366
a(I0
g113
tp367
a(I1
g86
tp368
a(I2
g113
tp369
a(I0
g113
tp370
a(I1
g86
tp371
a(I2
g113
tp372
a(I0
g86
tp373
a(I1
g86
tp374
a(I2
g113
tp375
a(I0
g86
tp376
a(I1
g86
tp377
a(I2
g86
tp378
a(I0
g89
tp379
a(I1
g86
tp380
a(I2
g86
tp381
a(I0
g89
tp382
a(I1
g86
tp383
a(I2
g86
tp384
a(I0
g93
tp385
a(I1
g86
tp386
a(I2
g86
tp387
a(I0
g93
tp388
a(I1
g86
tp389
a(I2
g86
tp390
a(I0
g89
tp391
a(I1
g86
tp392
a(I2
g86
tp393
a(I0
g89
tp394
a(I1
g93
tp395
a(I2
g93
tp396
a(I0
g89
tp397
a(I1
g93
tp398
a(I2
g93
tp399
a(I0
g93
tp400
a(I1
g93
tp401
a(I2
g93
tp402
a(I0
g93
tp403
a(I1
g93
tp404
a(I2
g93
tp405
a(I0
g93
tp406
a(I1
g93
tp407
a(I2
g93
tp408
a(I0
g93
tp409
a(I1
g93
tp410
a(I2
g93
tp411
a(I0
g113
tp412
a(I1
g93
tp413
a(I2
g93
tp414
a(I0
g113
tp415
a(I1
g93
tp416
a(I2
g93
tp417
a(I0
g89
tp418
a(I1
g86
tp419
a(I2
g89
tp420
a(I0
g89
tp421
a(I1
g86
tp422
a(I2
g89
tp423
a(I0
g113
tp424
a(I1
g86
tp425
a(I2
g89
tp426
a(I0
g113
tp427
a(I1
g86
tp428
a(I2
g89
tp429
a(I0
g113
tp430
a(I1
g86
tp431
a(I2
g113
tp432
a(I0
g113
tp433
a(I1
g86
tp434
a(I2
g113
tp435
a(I0
g86
tp436
a(I1
g93
tp437
a(I2
g113
tp438
a(I0
g86
tp439
a(I1
g93
tp440
a(I2
g89
tp441
a(I0
g213
tp442
a(I1
g89
tp443
a(I2
g113
tp444
a(I0
g86
tp445
a(I1
g89
tp446
a(I2
g113
tp447
a(I0
g93
tp448
a(I1
g89
tp449
a(I2
g86
tp450
a(I0
g93
tp451
a(I1
g93
tp452
a(I2
g86
tp453
a(I0
g86
tp454
a(I1
g93
tp455
a(I2
g86
tp456
a(I0
g86
tp457
a(I1
g89
tp458
a(I2
g93
tp459
a(I0
g86
tp460
a(I1
g89
tp461
a(I2
g93
tp462
a(I0
g86
tp463
a(I1
g89
tp464
a(I2
g93
tp465
a(I0
g86
tp466
a(I1
g89
tp467
a(I2
g93
tp468
a(I0
g86
tp469
a(I1
g89
tp470
a(I2
g89
tp471
a(I0
g86
tp472
a(I1
g89
tp473
a(I2
g89
tp474
a(I0
g86
tp475
a(I1
g89
tp476
a(I2
g93
tp477
a(I0
g86
tp478
a(I1
g113
tp479
a(I2
g93
tp480
a(I0
g93
tp481
a(I1
g113
tp482
a(I2
g89
tp483
a(I0
g93
tp484
a(I1
g113
tp485
a(I2
g93
tp486
a(I0
g93
tp487
a(I1
g113
tp488
a(I2
g93
tp489
a(I0
g93
tp490
a(I1
g113
tp491
a(I2
g86
tp492
a(I0
g86
tp493
a(I1
g113
tp494
a(I2
g86
tp495
a(I0
g89
tp496
a(I1
g86
tp497
a(I2
g86
tp498
a(I0
g86
tp499
a(I1
g86
tp500
a(I2
g113
tp501
a(I0
g86
tp502
a(I1
g86
tp503
a(I2
g113
tp504
a(I0
g93
tp505
a(I1
g86
tp506
a(I2
g113
tp507
a(I0
g93
tp508
a(I1
g86
tp509
a(I2
g113
tp510
a(I0
g86
tp511
a(I1
g86
tp512
a(I2
g89
tp513
a(I0
g86
tp514
a(I1
g86
tp515
a(I2
g89
tp516
a(I0
g86
tp517
a(I1
g86
tp518
a(I2
g89
tp519
a(I0
g113
tp520
a(I1
g86
tp521
a(I2
g89
tp522
a(I0
g113
tp523
a(I1
g113
tp524
a(I2
g89
tp525
a(I0
g113
tp526
as.