(dp1
S'layout'
p2
(ilayout
Layout
p3
(dp4
S'capsules'
p5
(lp6
(I18
I1
tp7
a(I1
I9
tp8
asS'numGhosts'
p9
I2
sS'food'
p10
(igame
Grid
p11
(dp12
S'CELLS_PER_INT'
p13
I30
sS'width'
p14
I20
sS'data'
p15
(lp16
(lp17
I00
aI00
aI00
aI00
aI00
aI00
aI00
aI00
aI00
aI00
aI00
aa(lp18
I00
aI01
aI01
aI01
aI01
aI01
aI01
aI01
aI01
aI00
aI00
aa(lp19
I00
aI01
aI00
aI00
aI00
aI01
aI00
aI00
aI00
aI01
aI00
aa(lp20
I00
aI01
aI00
aI01
aI01
aI01
aI01
aI01
aI00
aI01
aI00
aa(lp21
I00
aI01
aI01
aI01
aI00
aI01
aI00
aI01
aI01
aI01
aI00
aa(lp22
I00
aI00
aI00
aI01
aI00
aI01
aI00
aI01
aI00
aI00
aI00
aa(lp23
I00
aI01
aI01
aI01
aI01
aI01
aI01
aI01
aI01
aI01
aI00
aa(lp24
I00
aI01
aI00
aI01
aI00
aI00
aI00
aI01
aI00
aI01
aI00
aa(lp25
I00
aI01
aI00
aI01
aI00
aI00
aI00
aI01
aI00
aI01
aI00
aa(lp26
I00
aI00
aI00
aI01
aI00
aI00
aI00
aI01
aI00
aI01
aI00
aa(lp27
I00
aI01
aI00
aI01
aI00
aI00
aI00
aI01
aI00
aI01
aI00
aa(lp28
I00
aI01
aI00
aI01
aI00
aI00
aI00
aI01
aI00
aI01
aI00
aa(lp29
I00
aI01
aI00
aI01
aI00
aI00
aI00
aI01
aI00
aI01
aI00
aa(lp30
I00
aI01
aI01
aI01
aI01
aI01
aI01
aI01
aI01
aI01
aI00
aa(lp31
I00
aI00
aI00
aI01
aI00
aI01
aI00
aI01
aI00
aI00
aI00
aa(lp32
I00
aI01
aI01
aI01
aI00
aI01
aI00
aI01
aI01
aI01
aI00
aa(lp33
I00
aI01
aI00
aI01
aI01
aI01
aI01
aI01
aI00
aI01
aI00
aa(lp34
I00
aI01
aI00
aI00
aI00
aI01
aI00
aI00
aI00
aI01
aI00
aa(lp35
I00
aI00
aI01
aI01
aI01
aI01
aI01
aI01
aI01
aI01
aI00
aa(lp36
I00
aI00
aI00
aI00
aI00
aI00
aI00
aI00
aI00
aI00
aI00
aasS'height'
p37
I11
sbsS'agentPositions'
p38
(lp39
(I01
(I9
I1
tp40
tp41
a(I00
(I8
I5
tp42
tp43
a(I00
(I11
I5
tp44
tp45
asg37
I11
sg14
I20
sS'walls'
p46
(igame
Grid
p47
(dp48
g13
I30
sg14
I20
sg15
(lp49
(lp50
I01
aI01
aI01
aI01
aI01
aI01
aI01
aI01
aI01
aI01
aI01
aa(lp51
I01
aI00
aI00
aI00
aI00
aI00
aI00
aI00
aI00
aI00
aI01
aa(lp52
I01
aI00
aI01
aI01
aI01
aI00
aI01
aI01
aI01
aI00
aI01
aa(lp53
I01
aI00
aI01
aI00
aI00
aI00
aI00
aI00
aI01
aI00
aI01
aa(lp54
I01
aI00
aI00
aI00
aI01
aI00
aI01
aI00
aI00
aI00
aI01
aa(lp55
I01
aI01
aI01
aI00
aI01
aI00
aI01
aI00
aI01
aI01
aI01
aa(lp56
I01
aI00
aI00
aI00
aI00
aI00
aI00
aI00
aI00
aI00
aI01
aa(lp57
I01
aI00
aI01
aI00
aI01
aI01
aI01
aI00
aI01
aI00
aI01
aa(lp58
I01
aI00
aI01
aI00
aI01
aI00
aI01
aI00
aI01
aI00
aI01
aa(lp59
I01
aI00
aI01
aI00
aI01
aI00
aI00
aI00
aI01
aI00
aI01
aa(lp60
I01
aI00
aI01
aI00
aI01
aI00
aI00
aI00
aI01
aI00
aI01
aa(lp61
I01
aI00
aI01
aI00
aI01
aI00
aI01
aI00
aI01
aI00
aI01
aa(lp62
I01
aI00
aI01
aI00
aI01
aI01
aI01
aI00
aI01
aI00
aI01
aa(lp63
I01
aI00
aI00
aI00
aI00
aI00
aI00
aI00
aI00
aI00
aI01
aa(lp64
I01
aI01
aI01
aI00
aI01
aI00
aI01
aI00
aI01
aI01
aI01
aa(lp65
I01
aI00
aI00
aI00
aI01
aI00
aI01
aI00
aI00
aI00
aI01
aa(lp66
I01
aI00
aI01
aI00
aI00
aI00
aI00
aI00
aI01
aI00
aI01
aa(lp67
I01
aI00
aI01
aI01
aI01
aI00
aI01
aI01
aI01
aI00
aI01
aa(lp68
I01
aI00
aI00
aI00
aI00
aI00
aI00
aI00
aI00
aI00
aI01
aa(lp69
I01
aI01
aI01
aI01
aI01
aI01
aI01
aI01
aI01
aI01
aI01
aasg37
I11
sbsS'totalFood'
p70
I97
sS'layoutText'
p71
(lp72
S'%%%%%%%%%%%%%%%%%%%%'
p73
aS'%o...%........%....%'
p74
aS'%.%%.%.%%%%%%.%.%%.%'
p75
aS'%.%..............%.%'
p76
aS'%.%.%%.%%  %%.%%.%.%'
p77
aS'%......%G  G%......%'
p78
aS'%.%.%%.%%%%%%.%%.%.%'
p79
aS'%.%..............%.%'
p80
aS'%.%%.%.%%%%%%.%.%%.%'
p81
aS'%....%...P....%...o%'
p82
aS'%%%%%%%%%%%%%%%%%%%%'
p83
asbsS'actions'
p84
(lp85
(I0
S'West'
p86
tp87
a(I1
S'East'
p88
tp89
a(I2
g86
tp90
a(I0
g86
tp91
a(I1
g88
tp92
a(I2
S'North'
p93
tp94
a(I0
g86
tp95
a(I1
g88
tp96
a(I2
g86
tp97
a(I0
g93
tp98
a(I1
g86
tp99
a(I2
S'South'
p100
tp101
a(I0
g93
tp102
a(I1
g86
tp103
a(I2
g88
tp104
a(I0
g93
tp105
a(I1
g86
tp106
a(I2
g88
tp107
a(I0
g93
tp108
a(I1
g88
tp109
a(I2
g86
tp110
a(I0
g93
tp111
a(I1
g88
tp112
a(I2
g86
tp113
a(I0
g93
tp114
a(I1
g93
tp115
a(I2
g86
tp116
a(I0
g86
tp117
a(I1
g93
tp118
a(I2
g88
tp119
a(I0
g86
tp120
a(I1
g88
tp121
a(I2
g93
tp122
a(I0
g93
tp123
a(I1
g88
tp124
a(I2
g93
tp125
a(I0
g93
tp126
a(I1
g88
tp127
a(I2
g88
tp128
a(I0
g86
tp129
a(I1
g100
tp130
a(I2
g100
tp131
a(I0
g86
tp132
a(I1
g100
tp133
a(I2
g100
tp134
a(I0
g86
tp135
a(I1
g88
tp136
a(I2
g86
tp137
a(I0
g100
tp138
a(I1
g88
tp139
a(I2
g86
tp140
a(I0
g100
tp141
a(I1
g88
tp142
a(I2
g93
tp143
a(I0
g100
tp144
a(I1
g88
tp145
a(I2
g93
tp146
a(I0
g100
tp147
a(I1
g88
tp148
a(I2
g93
tp149
a(I0
g88
tp150
a(I1
g88
tp151
a(I2
g93
tp152
a(I0
g88
tp153
a(I1
g93
tp154
a(I2
g86
tp155
a(I0
g93
tp156
a(I1
g93
tp157
a(I2
g86
tp158
a(I0
g93
tp159
a(I1
g93
tp160
a(I2
g86
tp161
a(I0
g100
tp162
a(I1
g93
tp163
a(I2
g86
tp164
a(I0
g100
tp165
a(I1
g86
tp166
a(I2
g86
tp167
a(I0
g100
tp168
a(I1
g86
tp169
a(I2
g86
tp170
a(I0
g100
tp171
a(I1
g93
tp172
a(I2
g93
tp173
a(I0
g88
tp174
a(I1
g93
tp175
a(I2
g93
tp176
a(I0
g88
tp177
a(I1
g93
tp178
a(I2
g93
tp179
a(I0
g88
tp180
a(I1
g93
tp181
a(I2
g93
tp182
a(I0
g88
tp183
a(I1
g88
tp184
a(I2
g88
tp185
a(I0
g88
tp186
a(I1
g88
tp187
a(I2
g88
tp188
a(I0
g88
tp189
a(I1
g88
tp190
a(I2
g88
tp191
a(I0
g88
tp192
a(I1
g88
tp193
a(I2
g88
tp194
a(I0
g88
tp195
a(I1
g88
tp196
a(I2
g88
tp197
a(I0
g88
tp198
a(I1
g88
tp199
a(I2
g88
tp200
a(I0
g88
tp201
a(I1
g100
tp202
a(I2
g88
tp203
a(I0
g100
tp204
a(I1
g100
tp205
a(I2
g88
tp206
a(I0
g100
tp207
a(I1
g100
tp208
a(I2
g88
tp209
a(I0
g86
tp210
a(I1
g100
tp211
a(I2
g88
tp212
a(I0
S'Stop'
p213
tp214
a(I1
g100
tp215
a(I2
g88
tp216
a(I0
g86
tp217
a(I1
g100
tp218
a(I2
g88
tp219
a(I0
g86
tp220
a(I1
g100
tp221
a(I2
g88
tp222
a(I0
g88
tp223
a(I1
g100
tp224
a(I2
g88
tp225
a(I0
g88
tp226
a(I1
g100
tp227
a(I2
g100
tp228
a(I0
g88
tp229
a(I1
g100
tp230
a(I2
g100
tp231
a(I0
g93
tp232
a(I1
g100
tp233
a(I2
g100
tp234
a(I0
g93
tp235
a(I1
g100
tp236
a(I2
g100
tp237
a(I0
g93
tp238
a(I1
g100
tp239
a(I2
g100
tp240
a(I0
g93
tp241
a(I1
g100
tp242
a(I2
g100
tp243
a(I0
g88
tp244
a(I1
g100
tp245
a(I2
g100
tp246
a(I0
g88
tp247
a(I1
g100
tp248
a(I2
g100
tp249
a(I0
g88
tp250
a(I1
g86
tp251
a(I2
g100
tp252
a(I0
g100
tp253
a(I1
g86
tp254
a(I2
g100
tp255
a(I0
g100
tp256
a(I1
g86
tp257
a(I2
g100
tp258
a(I0
g86
tp259
a(I1
g86
tp260
a(I2
g88
tp261
a(I0
g88
tp262
a(I1
g93
tp263
a(I2
g88
tp264
a(I0
g93
tp265
a(I1
g93
tp266
a(I2
g100
tp267
a(I0
g93
tp268
a(I1
g86
tp269
a(I2
g100
tp270
a(I0
g88
tp271
a(I1
g86
tp272
a(I2
g88
tp273
a(I0
g88
tp274
a(I1
g93
tp275
a(I2
g88
tp276
a(I0
g93
tp277
a(I1
g93
tp278
a(I2
g88
tp279
a(I0
g93
tp280
a(I1
g88
tp281
a(I2
g93
tp282
a(I0
g93
tp283
a(I1
g88
tp284
a(I2
g93
tp285
a(I0
g93
tp286
a(I1
g88
tp287
a(I2
g93
tp288
a(I0
g86
tp289
a(I1
g88
tp290
a(I2
g93
tp291
a(I0
g86
tp292
a(I1
g88
tp293
a(I2
g86
tp294
a(I0
g86
tp295
a(I1
g100
tp296
a(I2
g86
tp297
a(I0
g100
tp298
a(I1
g100
tp299
a(I2
g86
tp300
a(I0
g100
tp301
a(I1
g100
tp302
a(I2
g86
tp303
a(I0
g88
tp304
a(I1
g100
tp305
a(I2
g86
tp306
a(I0
g100
tp307
a(I1
g86
tp308
a(I2
g100
tp309
a(I0
g93
tp310
a(I1
g86
tp311
a(I2
g100
tp312
a(I0
g86
tp313
a(I1
g86
tp314
a(I2
g100
tp315
a(I0
g86
tp316
a(I1
g93
tp317
a(I2
g100
tp318
a(I0
g86
tp319
a(I1
g93
tp320
a(I2
g86
tp321
a(I0
g86
tp322
a(I1
g88
tp323
a(I2
g86
tp324
a(I0
g86
tp325
a(I1
g93
tp326
a(I2
g86
tp327
a(I0
g86
tp328
a(I1
g93
tp329
a(I2
g86
tp330
a(I0
g86
tp331
a(I1
g86
tp332
a(I2
g86
tp333
a(I0
g88
tp334
a(I1
g86
tp335
a(I2
g86
tp336
a(I0
g86
tp337
a(I1
g86
tp338
a(I2
g86
tp339
a(I0
g86
tp340
a(I1
g100
tp341
a(I2
g93
tp342
a(I0
g86
tp343
a(I1
g100
tp344
a(I2
g93
tp345
a(I0
g88
tp346
a(I1
g88
tp347
a(I2
g93
tp348
a(I0
g86
tp349
a(I1
g88
tp350
a(I2
g93
tp351
a(I0
g86
tp352
a(I1
g88
tp353
a(I2
g93
tp354
a(I0
g93
tp355
a(I1
g93
tp356
a(I2
g93
tp357
a(I0
g93
tp358
a(I1
g93
tp359
a(I2
g93
tp360
a(I0
g88
tp361
a(I1
g86
tp362
a(I2
g93
tp363
a(I0
g88
tp364
a(I1
g86
tp365
a(I2
g88
tp366
a(I0
g88
tp367
a(I1
g86
tp368
a(I2
g88
tp369
a(I0
g88
tp370
a(I1
g93
tp371
a(I2
g88
tp372
a(I0
g88
tp373
a(I1
g93
tp374
a(I2
g88
tp375
a(I0
g88
tp376
a(I1
g93
tp377
a(I2
g88
tp378
a(I0
g88
tp379
a(I1
g93
tp380
as.