(dp1
S'layout'
p2
(ilayout
Layout
p3
(dp4
S'capsules'
p5
(lp6
(I18
I1
tp7
a(I1
I9
tp8
asS'numGhosts'
p9
I2
sS'food'
p10
(igame
Grid
p11
(dp12
S'CELLS_PER_INT'
p13
I30
sS'width'
p14
I20
sS'data'
p15
(lp16
(lp17
I00
aI00
aI00
aI00
aI00
aI00
aI00
aI00
aI00
aI00
aI00
aa(lp18
I00
aI01
aI01
aI01
aI01
aI01
aI01
aI01
aI01
aI00
aI00
aa(lp19
I00
aI01
aI00
aI00
aI00
aI01
aI00
aI00
aI00
aI01
aI00
aa(lp20
I00
aI01
aI00
aI01
aI01
aI01
aI01
aI01
aI00
aI01
aI00
aa(lp21
I00
aI01
aI01
aI01
aI00
aI01
aI00
aI01
aI01
aI01
aI00
aa(lp22
I00
aI00
aI00
aI01
aI00
aI01
aI00
aI01
aI00
aI00
aI00
aa(lp23
I00
aI01
aI01
aI01
aI01
aI01
aI01
aI01
aI01
aI01
aI00
aa(lp24
I00
aI01
aI00
aI01
aI00
aI00
aI00
aI01
aI00
aI01
aI00
aa(lp25
I00
aI01
aI00
aI01
aI00
aI00
aI00
aI01
aI00
aI01
aI00
aa(lp26
I00
aI00
aI00
aI01
aI00
aI00
aI00
aI01
aI00
aI01
aI00
aa(lp27
I00
aI01
aI00
aI01
aI00
aI00
aI00
aI01
aI00
aI01
aI00
aa(lp28
I00
aI01
aI00
aI01
aI00
aI00
aI00
aI01
aI00
aI01
aI00
aa(lp29
I00
aI01
aI00
aI01
aI00
aI00
aI00
aI01
aI00
aI01
aI00
aa(lp30
I00
aI01
aI01
aI01
aI01
aI01
aI01
aI01
aI01
aI01
aI00
aa(lp31
I00
aI00
aI00
aI01
aI00
aI01
aI00
aI01
aI00
aI00
aI00
aa(lp32
I00
aI01
aI01
aI01
aI00
aI01
aI00
aI01
aI01
aI01
aI00
aa(lp33
I00
aI01
aI00
aI01
aI01
aI01
aI01
aI01
aI00
aI01
aI00
aa(lp34
I00
aI01
aI00
aI00
aI00
aI01
aI00
aI00
aI00
aI01
aI00
aa(lp35
I00
aI00
aI01
aI01
aI01
aI01
aI01
aI01
aI01
aI01
aI00
aa(lp36
I00
aI00
aI00
aI00
aI00
aI00
aI00
aI00
aI00
aI00
aI00
aasS'height'
p37
I11
sbsS'agentPositions'
p38
(lp39
(I01
(I9
I1
tp40
tp41
a(I00
(I8
I5
tp42
tp43
a(I00
(I11
I5
tp44
tp45
asg37
I11
sg14
I20
sS'walls'
p46
(igame
Grid
p47
(dp48
g13
I30
sg14
I20
sg15
(lp49
(lp50
I01
aI01
aI01
aI01
aI01
aI01
aI01
aI01
aI01
aI01
aI01
aa(lp51
I01
aI00
aI00
aI00
aI00
aI00
aI00
aI00
aI00
aI00
aI01
aa(lp52
I01
aI00
aI01
aI01
aI01
aI00
aI01
aI01
aI01
aI00
aI01
aa(lp53
I01
aI00
aI01
aI00
aI00
aI00
aI00
aI00
aI01
aI00
aI01
aa(lp54
I01
aI00
aI00
aI00
aI01
aI00
aI01
aI00
aI00
aI00
aI01
aa(lp55
I01
aI01
aI01
aI00
aI01
aI00
aI01
aI00
aI01
aI01
aI01
aa(lp56
I01
aI00
aI00
aI00
aI00
aI00
aI00
aI00
aI00
aI00
aI01
aa(lp57
I01
aI00
aI01
aI00
aI01
aI01
aI01
aI00
aI01
aI00
aI01
aa(lp58
I01
aI00
aI01
aI00
aI01
aI00
aI01
aI00
aI01
aI00
aI01
aa(lp59
I01
aI00
aI01
aI00
aI01
aI00
aI00
aI00
aI01
aI00
aI01
aa(lp60
I01
aI00
aI01
aI00
aI01
aI00
aI00
aI00
aI01
aI00
aI01
aa(lp61
I01
aI00
aI01
aI00
aI01
aI00
aI01
aI00
aI01
aI00
aI01
aa(lp62
I01
aI00
aI01
aI00
aI01
aI01
aI01
aI00
aI01
aI00
aI01
aa(lp63
I01
aI00
aI00
aI00
aI00
aI00
aI00
aI00
aI00
aI00
aI01
aa(lp64
I01
aI01
aI01
aI00
aI01
aI00
aI01
aI00
aI01
aI01
aI01
aa(lp65
I01
aI00
aI00
aI00
aI01
aI00
aI01
aI00
aI00
aI00
aI01
aa(lp66
I01
aI00
aI01
aI00
aI00
aI00
aI00
aI00
aI01
aI00
aI01
aa(lp67
I01
aI00
aI01
aI01
aI01
aI00
aI01
aI01
aI01
aI00
aI01
aa(lp68
I01
aI00
aI00
aI00
aI00
aI00
aI00
aI00
aI00
aI00
aI01
aa(lp69
I01
aI01
aI01
aI01
aI01
aI01
aI01
aI01
aI01
aI01
aI01
aasg37
I11
sbsS'totalFood'
p70
I97
sS'layoutText'
p71
(lp72
S'%%%%%%%%%%%%%%%%%%%%'
p73
aS'%o...%........%....%'
p74
aS'%.%%.%.%%%%%%.%.%%.%'
p75
aS'%.%..............%.%'
p76
aS'%.%.%%.%%  %%.%%.%.%'
p77
aS'%......%G  G%......%'
p78
aS'%.%.%%.%%%%%%.%%.%.%'
p79
aS'%.%..............%.%'
p80
aS'%.%%.%.%%%%%%.%.%%.%'
p81
aS'%....%...P....%...o%'
p82
aS'%%%%%%%%%%%%%%%%%%%%'
p83
asbsS'actions'
p84
(lp85
(I0
S'West'
p86
tp87
a(I1
S'East'
p88
tp89
a(I2
g86
tp90
a(I0
g86
tp91
a(I1
g88
tp92
a(I2
g86
tp93
a(I0
g86
tp94
a(I1
S'North'
p95
tp96
a(I2
g95
tp97
a(I0
S'Stop'
p98
tp99
a(I1
g86
tp100
a(I2
g88
tp101
a(I0
g95
tp102
a(I1
g95
tp103
a(I2
S'South'
p104
tp105
a(I0
g95
tp106
a(I1
g86
tp107
a(I2
g88
tp108
a(I0
g88
tp109
a(I1
g86
tp110
a(I2
g86
tp111
a(I0
g88
tp112
a(I1
g86
tp113
a(I2
g86
tp114
a(I0
g88
tp115
a(I1
g86
tp116
a(I2
g86
tp117
a(I0
g88
tp118
a(I1
g86
tp119
a(I2
g88
tp120
a(I0
g88
tp121
a(I1
g95
tp122
a(I2
g88
tp123
a(I0
g88
tp124
a(I1
g95
tp125
a(I2
g95
tp126
a(I0
g88
tp127
a(I1
g86
tp128
a(I2
g86
tp129
a(I0
g88
tp130
a(I1
g86
tp131
a(I2
g104
tp132
a(I0
g88
tp133
a(I1
g86
tp134
a(I2
g86
tp135
a(I0
g88
tp136
a(I1
g104
tp137
a(I2
g88
tp138
a(I0
g95
tp139
a(I1
g104
tp140
a(I2
g95
tp141
a(I0
g95
tp142
a(I1
g104
tp143
a(I2
g95
tp144
a(I0
g95
tp145
a(I1
g104
tp146
a(I2
g86
tp147
a(I0
g95
tp148
a(I1
g88
tp149
a(I2
g86
tp150
a(I0
g86
tp151
a(I1
g88
tp152
a(I2
g86
tp153
a(I0
g95
tp154
a(I1
g88
tp155
a(I2
g104
tp156
a(I0
g95
tp157
a(I1
g88
tp158
a(I2
g104
tp159
a(I0
g88
tp160
a(I1
g88
tp161
a(I2
g104
tp162
a(I0
g88
tp163
a(I1
g95
tp164
a(I2
g104
tp165
a(I0
g88
tp166
a(I1
g95
tp167
a(I2
g104
tp168
a(I0
g104
tp169
a(I1
g88
tp170
a(I2
g104
tp171
a(I0
g104
tp172
a(I1
g88
tp173
a(I2
g88
tp174
a(I0
g104
tp175
a(I1
g88
tp176
a(I2
g88
tp177
a(I0
g104
tp178
a(I1
g88
tp179
a(I2
g88
tp180
a(I0
g86
tp181
a(I1
g104
tp182
a(I2
g88
tp183
a(I0
g86
tp184
a(I1
g86
tp185
a(I2
g88
tp186
a(I0
g86
tp187
a(I1
g104
tp188
a(I2
g88
tp189
a(I0
g86
tp190
a(I1
g86
tp191
a(I2
g88
tp192
a(I0
g86
tp193
a(I1
g88
tp194
a(I2
g95
tp195
a(I0
g88
tp196
a(I1
g95
tp197
a(I2
g95
tp198
a(I0
g86
tp199
a(I1
g88
tp200
a(I2
g88
tp201
a(I0
g104
tp202
a(I1
g95
tp203
a(I2
g88
tp204
a(I0
g95
tp205
a(I1
g86
tp206
a(I2
g88
tp207
a(I0
g95
tp208
a(I1
g86
tp209
a(I2
g95
tp210
a(I0
g95
tp211
a(I1
g86
tp212
a(I2
g95
tp213
a(I0
g95
tp214
a(I1
g86
tp215
a(I2
g88
tp216
a(I0
g95
tp217
a(I1
g104
tp218
a(I2
g88
tp219
a(I0
g86
tp220
a(I1
g104
tp221
a(I2
g95
tp222
a(I0
g86
tp223
a(I1
g86
tp224
a(I2
g95
tp225
a(I0
g86
tp226
a(I1
g86
tp227
a(I2
g95
tp228
a(I0
g86
tp229
a(I1
g86
tp230
a(I2
g95
tp231
a(I0
g86
tp232
a(I1
g95
tp233
a(I2
g86
tp234
a(I0
g86
tp235
a(I1
g95
tp236
a(I2
g86
tp237
a(I0
g86
tp238
a(I1
g88
tp239
a(I2
g86
tp240
a(I0
g104
tp241
a(I1
g88
tp242
a(I2
g104
tp243
a(I0
g98
tp244
a(I1
g88
tp245
a(I2
g104
tp246
a(I0
g95
tp247
a(I1
g95
tp248
a(I2
g86
tp249
a(I0
g88
tp250
a(I1
g95
tp251
a(I2
g86
tp252
a(I0
g88
tp253
a(I1
g88
tp254
a(I2
g104
tp255
a(I0
g88
tp256
a(I1
g88
tp257
a(I2
g104
tp258
a(I0
g88
tp259
a(I1
g88
tp260
a(I2
g88
tp261
a(I0
g88
tp262
a(I1
g88
tp263
a(I2
g88
tp264
a(I0
g88
tp265
a(I1
g88
tp266
a(I2
g88
tp267
a(I0
g88
tp268
a(I1
g88
tp269
a(I2
g104
tp270
a(I0
g104
tp271
a(I1
g88
tp272
a(I2
g104
tp273
a(I0
g104
tp274
a(I1
g104
tp275
a(I2
g86
tp276
a(I0
g88
tp277
a(I1
g104
tp278
a(I2
g86
tp279
a(I0
g88
tp280
a(I1
g104
tp281
a(I2
g86
tp282
a(I0
g86
tp283
a(I1
g104
tp284
a(I2
g86
tp285
a(I0
g86
tp286
a(I1
g88
tp287
a(I2
g86
tp288
a(I0
g86
tp289
a(I1
g88
tp290
a(I2
g86
tp291
a(I0
g86
tp292
a(I1
g88
tp293
a(I2
g86
tp294
a(I0
g86
tp295
a(I1
g104
tp296
a(I2
g86
tp297
a(I0
g86
tp298
a(I1
g104
tp299
a(I2
g86
tp300
a(I0
g86
tp301
a(I1
g86
tp302
a(I2
g86
tp303
a(I0
g98
tp304
a(I1
g86
tp305
a(I2
g86
tp306
a(I0
g86
tp307
a(I1
g86
tp308
a(I2
g86
tp309
a(I0
g86
tp310
a(I1
g104
tp311
a(I2
g104
tp312
a(I0
g104
tp313
a(I1
g104
tp314
a(I2
g104
tp315
a(I0
g104
tp316
a(I1
g86
tp317
a(I2
g86
tp318
a(I0
g104
tp319
a(I1
g86
tp320
a(I2
g86
tp321
a(I0
g95
tp322
a(I1
g86
tp323
a(I2
g86
tp324
a(I0
g86
tp325
a(I1
g86
tp326
a(I2
g95
tp327
a(I0
g86
tp328
a(I1
g86
tp329
a(I2
g95
tp330
a(I0
g86
tp331
a(I1
g86
tp332
a(I2
g95
tp333
a(I0
g86
tp334
a(I1
g86
tp335
a(I2
g95
tp336
a(I0
g88
tp337
a(I1
g95
tp338
a(I2
g95
tp339
a(I0
g104
tp340
a(I1
g95
tp341
a(I2
g95
tp342
a(I0
g104
tp343
a(I1
g86
tp344
a(I2
g95
tp345
a(I0
g98
tp346
a(I1
g86
tp347
a(I2
g95
tp348
a(I0
g95
tp349
a(I1
g104
tp350
a(I2
g88
tp351
a(I0
g104
tp352
a(I1
g104
tp353
a(I2
g88
tp354
a(I0
g88
tp355
a(I1
g86
tp356
a(I2
g88
tp357
a(I0
g88
tp358
a(I1
g86
tp359
a(I2
g104
tp360
a(I0
g86
tp361
a(I1
g86
tp362
a(I2
g104
tp363
a(I0
g104
tp364
a(I1
g95
tp365
a(I2
g86
tp366
a(I0
g104
tp367
a(I1
g95
tp368
a(I2
g104
tp369
a(I0
g86
tp370
a(I1
g95
tp371
a(I2
g104
tp372
a(I0
g86
tp373
a(I1
g95
tp374
a(I2
g88
tp375
a(I0
g86
tp376
a(I1
g88
tp377
a(I2
g88
tp378
a(I0
g95
tp379
a(I1
g88
tp380
a(I2
g88
tp381
a(I0
g95
tp382
a(I1
g104
tp383
a(I2
g95
tp384
a(I0
g95
tp385
a(I1
g104
tp386
a(I2
g95
tp387
a(I0
g95
tp388
a(I1
g88
tp389
a(I2
g95
tp390
a(I0
g95
tp391
a(I1
g104
tp392
a(I2
g95
tp393
a(I0
g95
tp394
a(I1
g104
tp395
a(I2
g88
tp396
a(I0
g95
tp397
a(I1
g86
tp398
a(I2
g88
tp399
a(I0
g95
tp400
a(I1
g86
tp401
a(I2
g88
tp402
a(I0
g88
tp403
a(I1
g86
tp404
a(I2
g88
tp405
a(I0
g88
tp406
a(I1
g86
tp407
a(I2
g88
tp408
a(I0
g88
tp409
a(I1
g86
tp410
a(I2
g88
tp411
a(I0
g104
tp412
a(I1
g95
tp413
a(I2
g88
tp414
a(I0
g104
tp415
a(I1
g95
tp416
a(I2
g88
tp417
a(I0
g86
tp418
a(I1
g95
tp419
a(I2
g88
tp420
a(I0
g104
tp421
a(I1
g95
tp422
a(I2
g88
tp423
a(I0
g95
tp424
a(I1
g95
tp425
a(I2
g88
tp426
a(I0
g88
tp427
a(I1
g95
tp428
a(I2
g88
tp429
a(I0
g88
tp430
a(I1
g95
tp431
a(I2
g104
tp432
a(I0
g88
tp433
a(I1
g95
tp434
a(I2
g104
tp435
a(I0
g104
tp436
a(I1
g88
tp437
a(I2
g104
tp438
a(I0
g104
tp439
a(I1
g88
tp440
a(I2
g104
tp441
a(I0
g104
tp442
a(I1
g88
tp443
a(I2
g86
tp444
a(I0
g104
tp445
a(I1
g88
tp446
a(I2
g86
tp447
a(I0
g104
tp448
a(I1
g88
tp449
a(I2
g86
tp450
a(I0
g104
tp451
a(I1
g88
tp452
a(I2
g86
tp453
a(I0
g88
tp454
a(I1
g88
tp455
a(I2
g86
tp456
a(I0
g88
tp457
a(I1
g88
tp458
a(I2
g86
tp459
a(I0
g88
tp460
a(I1
g88
tp461
a(I2
g86
tp462
a(I0
g88
tp463
a(I1
g88
tp464
a(I2
g86
tp465
a(I0
g88
tp466
a(I1
g104
tp467
a(I2
g86
tp468
a(I0
g88
tp469
a(I1
g104
tp470
a(I2
g86
tp471
a(I0
g88
tp472
a(I1
g104
tp473
a(I2
g86
tp474
a(I0
g95
tp475
a(I1
g104
tp476
a(I2
g86
tp477
a(I0
g95
tp478
a(I1
g104
tp479
a(I2
g86
tp480
a(I0
g88
tp481
a(I1
g104
tp482
a(I2
g86
tp483
a(I0
g88
tp484
a(I1
g104
tp485
a(I2
g95
tp486
a(I0
g104
tp487
a(I1
g104
tp488
a(I2
g95
tp489
a(I0
g104
tp490
a(I1
g88
tp491
a(I2
g95
tp492
a(I0
g88
tp493
a(I1
g88
tp494
a(I2
g95
tp495
a(I0
g88
tp496
a(I1
g88
tp497
a(I2
g88
tp498
a(I0
g88
tp499
a(I1
g88
tp500
a(I2
g88
tp501
a(I0
g95
tp502
a(I1
g88
tp503
a(I2
g88
tp504
a(I0
g95
tp505
a(I1
g88
tp506
a(I2
g88
tp507
a(I0
g95
tp508
as.