(dp1
S'layout'
p2
(ilayout
Layout
p3
(dp4
S'capsules'
p5
(lp6
(I18
I1
tp7
a(I1
I9
tp8
asS'numGhosts'
p9
I2
sS'food'
p10
(igame
Grid
p11
(dp12
S'CELLS_PER_INT'
p13
I30
sS'width'
p14
I20
sS'data'
p15
(lp16
(lp17
I00
aI00
aI00
aI00
aI00
aI00
aI00
aI00
aI00
aI00
aI00
aa(lp18
I00
aI01
aI01
aI01
aI01
aI01
aI01
aI01
aI01
aI00
aI00
aa(lp19
I00
aI01
aI00
aI00
aI00
aI01
aI00
aI00
aI00
aI01
aI00
aa(lp20
I00
aI01
aI00
aI01
aI01
aI01
aI01
aI01
aI00
aI01
aI00
aa(lp21
I00
aI01
aI01
aI01
aI00
aI01
aI00
aI01
aI01
aI01
aI00
aa(lp22
I00
aI00
aI00
aI01
aI00
aI01
aI00
aI01
aI00
aI00
aI00
aa(lp23
I00
aI01
aI01
aI01
aI01
aI01
aI01
aI01
aI01
aI01
aI00
aa(lp24
I00
aI01
aI00
aI01
aI00
aI00
aI00
aI01
aI00
aI01
aI00
aa(lp25
I00
aI01
aI00
aI01
aI00
aI00
aI00
aI01
aI00
aI01
aI00
aa(lp26
I00
aI00
aI00
aI01
aI00
aI00
aI00
aI01
aI00
aI01
aI00
aa(lp27
I00
aI01
aI00
aI01
aI00
aI00
aI00
aI01
aI00
aI01
aI00
aa(lp28
I00
aI01
aI00
aI01
aI00
aI00
aI00
aI01
aI00
aI01
aI00
aa(lp29
I00
aI01
aI00
aI01
aI00
aI00
aI00
aI01
aI00
aI01
aI00
aa(lp30
I00
aI01
aI01
aI01
aI01
aI01
aI01
aI01
aI01
aI01
aI00
aa(lp31
I00
aI00
aI00
aI01
aI00
aI01
aI00
aI01
aI00
aI00
aI00
aa(lp32
I00
aI01
aI01
aI01
aI00
aI01
aI00
aI01
aI01
aI01
aI00
aa(lp33
I00
aI01
aI00
aI01
aI01
aI01
aI01
aI01
aI00
aI01
aI00
aa(lp34
I00
aI01
aI00
aI00
aI00
aI01
aI00
aI00
aI00
aI01
aI00
aa(lp35
I00
aI00
aI01
aI01
aI01
aI01
aI01
aI01
aI01
aI01
aI00
aa(lp36
I00
aI00
aI00
aI00
aI00
aI00
aI00
aI00
aI00
aI00
aI00
aasS'height'
p37
I11
sbsS'agentPositions'
p38
(lp39
(I01
(I9
I1
tp40
tp41
a(I00
(I8
I5
tp42
tp43
a(I00
(I11
I5
tp44
tp45
asg37
I11
sg14
I20
sS'walls'
p46
(igame
Grid
p47
(dp48
g13
I30
sg14
I20
sg15
(lp49
(lp50
I01
aI01
aI01
aI01
aI01
aI01
aI01
aI01
aI01
aI01
aI01
aa(lp51
I01
aI00
aI00
aI00
aI00
aI00
aI00
aI00
aI00
aI00
aI01
aa(lp52
I01
aI00
aI01
aI01
aI01
aI00
aI01
aI01
aI01
aI00
aI01
aa(lp53
I01
aI00
aI01
aI00
aI00
aI00
aI00
aI00
aI01
aI00
aI01
aa(lp54
I01
aI00
aI00
aI00
aI01
aI00
aI01
aI00
aI00
aI00
aI01
aa(lp55
I01
aI01
aI01
aI00
aI01
aI00
aI01
aI00
aI01
aI01
aI01
aa(lp56
I01
aI00
aI00
aI00
aI00
aI00
aI00
aI00
aI00
aI00
aI01
aa(lp57
I01
aI00
aI01
aI00
aI01
aI01
aI01
aI00
aI01
aI00
aI01
aa(lp58
I01
aI00
aI01
aI00
aI01
aI00
aI01
aI00
aI01
aI00
aI01
aa(lp59
I01
aI00
aI01
aI00
aI01
aI00
aI00
aI00
aI01
aI00
aI01
aa(lp60
I01
aI00
aI01
aI00
aI01
aI00
aI00
aI00
aI01
aI00
aI01
aa(lp61
I01
aI00
aI01
aI00
aI01
aI00
aI01
aI00
aI01
aI00
aI01
aa(lp62
I01
aI00
aI01
aI00
aI01
aI01
aI01
aI00
aI01
aI00
aI01
aa(lp63
I01
aI00
aI00
aI00
aI00
aI00
aI00
aI00
aI00
aI00
aI01
aa(lp64
I01
aI01
aI01
aI00
aI01
aI00
aI01
aI00
aI01
aI01
aI01
aa(lp65
I01
aI00
aI00
aI00
aI01
aI00
aI01
aI00
aI00
aI00
aI01
aa(lp66
I01
aI00
aI01
aI00
aI00
aI00
aI00
aI00
aI01
aI00
aI01
aa(lp67
I01
aI00
aI01
aI01
aI01
aI00
aI01
aI01
aI01
aI00
aI01
aa(lp68
I01
aI00
aI00
aI00
aI00
aI00
aI00
aI00
aI00
aI00
aI01
aa(lp69
I01
aI01
aI01
aI01
aI01
aI01
aI01
aI01
aI01
aI01
aI01
aasg37
I11
sbsS'totalFood'
p70
I97
sS'layoutText'
p71
(lp72
S'%%%%%%%%%%%%%%%%%%%%'
p73
aS'%o...%........%....%'
p74
aS'%.%%.%.%%%%%%.%.%%.%'
p75
aS'%.%..............%.%'
p76
aS'%.%.%%.%%  %%.%%.%.%'
p77
aS'%......%G  G%......%'
p78
aS'%.%.%%.%%%%%%.%%.%.%'
p79
aS'%.%..............%.%'
p80
aS'%.%%.%.%%%%%%.%.%%.%'
p81
aS'%....%...P....%...o%'
p82
aS'%%%%%%%%%%%%%%%%%%%%'
p83
asbsS'actions'
p84
(lp85
(I0
S'East'
p86
tp87
a(I1
g86
tp88
a(I2
S'West'
p89
tp90
a(I0
g86
tp91
a(I1
g86
tp92
a(I2
S'North'
p93
tp94
a(I0
g86
tp95
a(I1
g93
tp96
a(I2
g93
tp97
a(I0
g86
tp98
a(I1
g93
tp99
a(I2
g89
tp100
a(I0
g93
tp101
a(I1
g86
tp102
a(I2
S'South'
p103
tp104
a(I0
g93
tp105
a(I1
g86
tp106
a(I2
g103
tp107
a(I0
g93
tp108
a(I1
g86
tp109
a(I2
g86
tp110
a(I0
g93
tp111
a(I1
g103
tp112
a(I2
g93
tp113
a(I0
g86
tp114
a(I1
g103
tp115
a(I2
g93
tp116
a(I0
g86
tp117
a(I1
g103
tp118
a(I2
g86
tp119
a(I0
g86
tp120
a(I1
g103
tp121
a(I2
g86
tp122
a(I0
g86
tp123
a(I1
g89
tp124
a(I2
g86
tp125
a(I0
g86
tp126
a(I1
g89
tp127
a(I2
g103
tp128
a(I0
g93
tp129
a(I1
g89
tp130
a(I2
g103
tp131
a(I0
g93
tp132
a(I1
g89
tp133
a(I2
g86
tp134
a(I0
g93
tp135
a(I1
g89
tp136
a(I2
g86
tp137
a(I0
g93
tp138
a(I1
g89
tp139
a(I2
g86
tp140
a(I0
g89
tp141
a(I1
g89
tp142
a(I2
g93
tp143
a(I0
g89
tp144
a(I1
g93
tp145
a(I2
g93
tp146
a(I0
g89
tp147
a(I1
g93
tp148
a(I2
g89
tp149
a(I0
S'Stop'
p150
tp151
a(I1
g89
tp152
a(I2
g89
tp153
a(I0
g103
tp154
a(I1
g89
tp155
a(I2
g89
tp156
a(I0
g103
tp157
a(I1
g89
tp158
a(I2
g103
tp159
a(I0
g89
tp160
a(I1
g93
tp161
a(I2
g103
tp162
a(I0
g89
tp163
a(I1
g93
tp164
a(I2
g86
tp165
a(I0
g103
tp166
a(I1
g86
tp167
a(I2
g86
tp168
a(I0
g93
tp169
a(I1
g86
tp170
a(I2
g86
tp171
a(I0
g89
tp172
a(I1
g86
tp173
a(I2
g103
tp174
a(I0
g89
tp175
a(I1
g103
tp176
a(I2
g103
tp177
a(I0
g150
tp178
a(I1
g103
tp179
a(I2
g89
tp180
a(I0
g89
tp181
a(I1
g103
tp182
a(I2
g103
tp183
a(I0
g89
tp184
a(I1
g103
tp185
a(I2
g103
tp186
a(I0
g89
tp187
a(I1
g89
tp188
a(I2
g86
tp189
a(I0
g89
tp190
a(I1
g89
tp191
a(I2
g86
tp192
a(I0
g89
tp193
a(I1
g103
tp194
a(I2
g86
tp195
a(I0
g89
tp196
a(I1
g103
tp197
a(I2
g93
tp198
a(I0
g89
tp199
a(I1
g89
tp200
a(I2
g93
tp201
a(I0
g93
tp202
a(I1
g89
tp203
a(I2
g93
tp204
a(I0
g93
tp205
a(I1
g89
tp206
a(I2
g93
tp207
a(I0
g89
tp208
a(I1
g93
tp209
a(I2
g93
tp210
a(I0
g89
tp211
a(I1
g93
tp212
a(I2
g93
tp213
a(I0
g89
tp214
a(I1
g93
tp215
a(I2
g93
tp216
a(I0
g103
tp217
a(I1
g93
tp218
a(I2
g93
tp219
a(I0
g103
tp220
a(I1
g93
tp221
a(I2
g93
tp222
a(I0
g150
tp223
a(I1
g93
tp224
a(I2
g93
tp225
a(I0
g150
tp226
a(I1
g86
tp227
a(I2
g89
tp228
a(I0
g103
tp229
a(I1
g86
tp230
a(I2
g89
tp231
a(I0
g150
tp232
a(I1
g86
tp233
a(I2
g89
tp234
a(I0
g103
tp235
a(I1
g86
tp236
a(I2
g89
tp237
a(I0
g103
tp238
a(I1
g103
tp239
a(I2
g89
tp240
a(I0
g103
tp241
a(I1
g103
tp242
a(I2
g89
tp243
a(I0
g103
tp244
a(I1
g103
tp245
a(I2
g103
tp246
a(I0
g103
tp247
a(I1
g103
tp248
a(I2
g103
tp249
a(I0
g86
tp250
a(I1
g86
tp251
a(I2
g103
tp252
a(I0
g86
tp253
a(I1
g86
tp254
a(I2
g103
tp255
a(I0
g86
tp256
a(I1
g103
tp257
a(I2
g86
tp258
a(I0
g150
tp259
a(I1
g103
tp260
a(I2
g86
tp261
a(I0
g89
tp262
a(I1
g103
tp263
a(I2
g103
tp264
a(I0
g150
tp265
a(I1
g103
tp266
a(I2
g103
tp267
a(I0
g89
tp268
a(I1
g89
tp269
a(I2
g103
tp270
a(I0
g150
tp271
a(I1
g89
tp272
a(I2
g103
tp273
a(I0
g89
tp274
a(I1
g89
tp275
a(I2
g89
tp276
a(I0
g150
tp277
a(I1
g89
tp278
a(I2
g89
tp279
a(I0
g93
tp280
a(I1
g89
tp281
a(I2
g89
tp282
a(I0
g93
tp283
a(I1
g89
tp284
a(I2
g89
tp285
a(I0
g93
tp286
a(I1
g93
tp287
a(I2
g89
tp288
a(I0
g93
tp289
a(I1
g93
tp290
a(I2
g89
tp291
a(I0
g86
tp292
a(I1
g93
tp293
a(I2
g103
tp294
a(I0
g86
tp295
a(I1
g93
tp296
a(I2
g103
tp297
a(I0
g93
tp298
a(I1
g93
tp299
a(I2
g103
tp300
a(I0
g93
tp301
a(I1
g93
tp302
a(I2
g103
tp303
a(I0
g103
tp304
a(I1
g93
tp305
a(I2
g89
tp306
a(I0
g103
tp307
a(I1
g93
tp308
a(I2
g89
tp309
a(I0
g86
tp310
a(I1
g93
tp311
a(I2
g89
tp312
a(I0
g86
tp313
a(I1
g93
tp314
a(I2
g89
tp315
a(I0
g86
tp316
a(I1
g93
tp317
a(I2
g89
tp318
a(I0
g93
tp319
a(I1
g93
tp320
a(I2
g89
tp321
a(I0
g103
tp322
a(I1
g93
tp323
a(I2
g89
tp324
a(I0
g103
tp325
a(I1
g93
tp326
a(I2
g89
tp327
a(I0
g103
tp328
a(I1
g93
tp329
a(I2
g89
tp330
a(I0
g89
tp331
a(I1
g93
tp332
a(I2
g89
tp333
a(I0
g89
tp334
a(I1
g86
tp335
a(I2
g89
tp336
a(I0
g103
tp337
a(I1
g86
tp338
a(I2
g89
tp339
a(I0
g93
tp340
a(I1
g86
tp341
a(I2
g89
tp342
a(I0
g89
tp343
a(I1
g103
tp344
a(I2
g89
tp345
a(I0
g93
tp346
a(I1
g103
tp347
a(I2
g103
tp348
a(I0
g103
tp349
a(I1
g86
tp350
a(I2
g103
tp351
a(I0
g150
tp352
a(I1
g86
tp353
a(I2
g89
tp354
a(I0
g86
tp355
a(I1
g103
tp356
a(I2
g89
tp357
a(I0
g86
tp358
a(I1
g103
tp359
a(I2
g89
tp360
a(I0
g86
tp361
a(I1
g89
tp362
a(I2
g93
tp363
a(I0
g89
tp364
a(I1
g89
tp365
a(I2
g93
tp366
a(I0
g86
tp367
a(I1
g89
tp368
a(I2
g93
tp369
a(I0
g86
tp370
a(I1
g93
tp371
a(I2
g93
tp372
a(I0
g86
tp373
a(I1
g93
tp374
a(I2
g86
tp375
a(I0
g86
tp376
a(I1
g86
tp377
a(I2
g86
tp378
a(I0
g86
tp379
a(I1
g93
tp380
a(I2
g86
tp381
a(I0
g86
tp382
a(I1
g93
tp383
a(I2
g86
tp384
a(I0
g86
tp385
a(I1
g89
tp386
a(I2
g86
tp387
a(I0
g86
tp388
a(I1
g89
tp389
a(I2
g93
tp390
a(I0
g86
tp391
a(I1
g89
tp392
a(I2
g93
tp393
a(I0
g86
tp394
a(I1
g103
tp395
a(I2
g89
tp396
a(I0
g86
tp397
a(I1
g103
tp398
a(I2
g89
tp399
a(I0
g93
tp400
a(I1
g103
tp401
a(I2
g93
tp402
a(I0
g93
tp403
a(I1
g103
tp404
a(I2
g93
tp405
a(I0
g93
tp406
a(I1
g86
tp407
a(I2
g89
tp408
a(I0
g93
tp409
a(I1
g86
tp410
a(I2
g89
tp411
a(I0
g89
tp412
a(I1
g93
tp413
a(I2
g89
tp414
a(I0
g89
tp415
a(I1
g93
tp416
a(I2
g103
tp417
a(I0
g89
tp418
a(I1
g86
tp419
a(I2
g103
tp420
a(I0
g93
tp421
a(I1
g93
tp422
a(I2
g103
tp423
a(I0
g93
tp424
a(I1
g93
tp425
a(I2
g103
tp426
a(I0
g89
tp427
a(I1
g89
tp428
a(I2
g86
tp429
a(I0
g89
tp430
a(I1
g89
tp431
a(I2
g86
tp432
a(I0
g89
tp433
a(I1
g89
tp434
a(I2
g86
tp435
a(I0
g89
tp436
a(I1
g103
tp437
a(I2
g86
tp438
a(I0
g89
tp439
a(I1
g103
tp440
a(I2
g86
tp441
a(I0
g89
tp442
a(I1
g103
tp443
a(I2
g93
tp444
a(I0
g89
tp445
a(I1
g103
tp446
a(I2
g93
tp447
a(I0
g150
tp448
a(I1
g86
tp449
a(I2
g86
tp450
a(I0
g103
tp451
a(I1
g86
tp452
a(I2
g86
tp453
a(I0
g103
tp454
a(I1
g103
tp455
a(I2
g86
tp456
a(I0
g103
tp457
a(I1
g103
tp458
a(I2
g103
tp459
a(I0
g103
tp460
a(I1
g86
tp461
a(I2
g103
tp462
a(I0
g103
tp463
a(I1
g86
tp464
a(I2
g86
tp465
a(I0
g150
tp466
a(I1
g86
tp467
a(I2
g93
tp468
a(I0
g93
tp469
a(I1
g86
tp470
a(I2
g93
tp471
a(I0
g103
tp472
a(I1
g86
tp473
a(I2
g86
tp474
a(I0
g103
tp475
a(I1
g86
tp476
a(I2
g86
tp477
a(I0
g103
tp478
a(I1
g86
tp479
a(I2
g86
tp480
a(I0
g103
tp481
a(I1
g86
tp482
a(I2
g86
tp483
a(I0
g86
tp484
a(I1
g86
tp485
a(I2
g86
tp486
a(I0
g86
tp487
a(I1
g86
tp488
a(I2
g93
tp489
a(I0
g86
tp490
a(I1
g103
tp491
a(I2
g93
tp492
a(I0
g86
tp493
a(I1
g103
tp494
a(I2
g86
tp495
a(I0
g86
tp496
a(I1
g89
tp497
a(I2
g86
tp498
a(I0
g89
tp499
a(I1
g89
tp500
a(I2
g86
tp501
a(I0
g89
tp502
a(I1
g89
tp503
a(I2
g103
tp504
a(I0
g89
tp505
a(I1
g89
tp506
a(I2
g103
tp507
a(I0
g89
tp508
a(I1
g89
tp509
a(I2
g103
tp510
a(I0
g89
tp511
a(I1
g89
tp512
a(I2
g103
tp513
a(I0
g93
tp514
a(I1
g89
tp515
a(I2
g89
tp516
a(I0
g93
tp517
a(I1
g93
tp518
a(I2
g89
tp519
a(I0
g86
tp520
a(I1
g93
tp521
a(I2
g93
tp522
a(I0
g86
tp523
a(I1
g89
tp524
a(I2
g93
tp525
a(I0
g86
tp526
a(I1
g89
tp527
a(I2
g89
tp528
a(I0
g86
tp529
a(I1
g89
tp530
a(I2
g89
tp531
a(I0
g86
tp532
a(I1
g93
tp533
a(I2
g89
tp534
a(I0
g86
tp535
a(I1
g93
tp536
a(I2
g103
tp537
a(I0
g86
tp538
a(I1
g89
tp539
a(I2
g103
tp540
a(I0
g86
tp541
a(I1
g89
tp542
a(I2
g86
tp543
a(I0
g86
tp544
a(I1
g93
tp545
a(I2
g86
tp546
a(I0
g103
tp547
a(I1
g93
tp548
a(I2
g86
tp549
a(I0
g103
tp550
a(I1
g93
tp551
a(I2
g103
tp552
a(I0
g86
tp553
a(I1
g93
tp554
a(I2
g103
tp555
a(I0
g86
tp556
a(I1
g86
tp557
a(I2
g89
tp558
a(I0
g86
tp559
a(I1
g86
tp560
a(I2
g89
tp561
a(I0
g93
tp562
a(I1
g86
tp563
a(I2
g89
tp564
a(I0
g93
tp565
a(I1
g86
tp566
a(I2
g89
tp567
a(I0
g93
tp568
as.