(dp1
S'layout'
p2
(ilayout
Layout
p3
(dp4
S'capsules'
p5
(lp6
(I18
I1
tp7
a(I1
I9
tp8
asS'numGhosts'
p9
I2
sS'food'
p10
(igame
Grid
p11
(dp12
S'CELLS_PER_INT'
p13
I30
sS'width'
p14
I20
sS'data'
p15
(lp16
(lp17
I00
aI00
aI00
aI00
aI00
aI00
aI00
aI00
aI00
aI00
aI00
aa(lp18
I00
aI01
aI01
aI01
aI01
aI01
aI01
aI01
aI01
aI00
aI00
aa(lp19
I00
aI01
aI00
aI00
aI00
aI01
aI00
aI00
aI00
aI01
aI00
aa(lp20
I00
aI01
aI00
aI01
aI01
aI01
aI01
aI01
aI00
aI01
aI00
aa(lp21
I00
aI01
aI01
aI01
aI00
aI01
aI00
aI01
aI01
aI01
aI00
aa(lp22
I00
aI00
aI00
aI01
aI00
aI01
aI00
aI01
aI00
aI00
aI00
aa(lp23
I00
aI01
aI01
aI01
aI01
aI01
aI01
aI01
aI01
aI01
aI00
aa(lp24
I00
aI01
aI00
aI01
aI00
aI00
aI00
aI01
aI00
aI01
aI00
aa(lp25
I00
aI01
aI00
aI01
aI00
aI00
aI00
aI01
aI00
aI01
aI00
aa(lp26
I00
aI00
aI00
aI01
aI00
aI00
aI00
aI01
aI00
aI01
aI00
aa(lp27
I00
aI01
aI00
aI01
aI00
aI00
aI00
aI01
aI00
aI01
aI00
aa(lp28
I00
aI01
aI00
aI01
aI00
aI00
aI00
aI01
aI00
aI01
aI00
aa(lp29
I00
aI01
aI00
aI01
aI00
aI00
aI00
aI01
aI00
aI01
aI00
aa(lp30
I00
aI01
aI01
aI01
aI01
aI01
aI01
aI01
aI01
aI01
aI00
aa(lp31
I00
aI00
aI00
aI01
aI00
aI01
aI00
aI01
aI00
aI00
aI00
aa(lp32
I00
aI01
aI01
aI01
aI00
aI01
aI00
aI01
aI01
aI01
aI00
aa(lp33
I00
aI01
aI00
aI01
aI01
aI01
aI01
aI01
aI00
aI01
aI00
aa(lp34
I00
aI01
aI00
aI00
aI00
aI01
aI00
aI00
aI00
aI01
aI00
aa(lp35
I00
aI00
aI01
aI01
aI01
aI01
aI01
aI01
aI01
aI01
aI00
aa(lp36
I00
aI00
aI00
aI00
aI00
aI00
aI00
aI00
aI00
aI00
aI00
aasS'height'
p37
I11
sbsS'agentPositions'
p38
(lp39
(I01
(I9
I1
tp40
tp41
a(I00
(I8
I5
tp42
tp43
a(I00
(I11
I5
tp44
tp45
asg37
I11
sg14
I20
sS'walls'
p46
(igame
Grid
p47
(dp48
g13
I30
sg14
I20
sg15
(lp49
(lp50
I01
aI01
aI01
aI01
aI01
aI01
aI01
aI01
aI01
aI01
aI01
aa(lp51
I01
aI00
aI00
aI00
aI00
aI00
aI00
aI00
aI00
aI00
aI01
aa(lp52
I01
aI00
aI01
aI01
aI01
aI00
aI01
aI01
aI01
aI00
aI01
aa(lp53
I01
aI00
aI01
aI00
aI00
aI00
aI00
aI00
aI01
aI00
aI01
aa(lp54
I01
aI00
aI00
aI00
aI01
aI00
aI01
aI00
aI00
aI00
aI01
aa(lp55
I01
aI01
aI01
aI00
aI01
aI00
aI01
aI00
aI01
aI01
aI01
aa(lp56
I01
aI00
aI00
aI00
aI00
aI00
aI00
aI00
aI00
aI00
aI01
aa(lp57
I01
aI00
aI01
aI00
aI01
aI01
aI01
aI00
aI01
aI00
aI01
aa(lp58
I01
aI00
aI01
aI00
aI01
aI00
aI01
aI00
aI01
aI00
aI01
aa(lp59
I01
aI00
aI01
aI00
aI01
aI00
aI00
aI00
aI01
aI00
aI01
aa(lp60
I01
aI00
aI01
aI00
aI01
aI00
aI00
aI00
aI01
aI00
aI01
aa(lp61
I01
aI00
aI01
aI00
aI01
aI00
aI01
aI00
aI01
aI00
aI01
aa(lp62
I01
aI00
aI01
aI00
aI01
aI01
aI01
aI00
aI01
aI00
aI01
aa(lp63
I01
aI00
aI00
aI00
aI00
aI00
aI00
aI00
aI00
aI00
aI01
aa(lp64
I01
aI01
aI01
aI00
aI01
aI00
aI01
aI00
aI01
aI01
aI01
aa(lp65
I01
aI00
aI00
aI00
aI01
aI00
aI01
aI00
aI00
aI00
aI01
aa(lp66
I01
aI00
aI01
aI00
aI00
aI00
aI00
aI00
aI01
aI00
aI01
aa(lp67
I01
aI00
aI01
aI01
aI01
aI00
aI01
aI01
aI01
aI00
aI01
aa(lp68
I01
aI00
aI00
aI00
aI00
aI00
aI00
aI00
aI00
aI00
aI01
aa(lp69
I01
aI01
aI01
aI01
aI01
aI01
aI01
aI01
aI01
aI01
aI01
aasg37
I11
sbsS'totalFood'
p70
I97
sS'layoutText'
p71
(lp72
S'%%%%%%%%%%%%%%%%%%%%'
p73
aS'%o...%........%....%'
p74
aS'%.%%.%.%%%%%%.%.%%.%'
p75
aS'%.%..............%.%'
p76
aS'%.%.%%.%%  %%.%%.%.%'
p77
aS'%......%G  G%......%'
p78
aS'%.%.%%.%%%%%%.%%.%.%'
p79
aS'%.%..............%.%'
p80
aS'%.%%.%.%%%%%%.%.%%.%'
p81
aS'%....%...P....%...o%'
p82
aS'%%%%%%%%%%%%%%%%%%%%'
p83
asbsS'actions'
p84
(lp85
(I0
S'West'
p86
tp87
a(I1
S'East'
p88
tp89
a(I2
g86
tp90
a(I0
g86
tp91
a(I1
g88
tp92
a(I2
g86
tp93
a(I0
g86
tp94
a(I1
S'North'
p95
tp96
a(I2
g95
tp97
a(I0
g95
tp98
a(I1
g95
tp99
a(I2
g88
tp100
a(I0
g95
tp101
a(I1
g86
tp102
a(I2
g95
tp103
a(I0
g86
tp104
a(I1
g86
tp105
a(I2
g86
tp106
a(I0
g86
tp107
a(I1
g86
tp108
a(I2
g86
tp109
a(I0
g86
tp110
a(I1
g86
tp111
a(I2
g86
tp112
a(I0
g95
tp113
a(I1
g86
tp114
a(I2
g86
tp115
a(I0
g95
tp116
a(I1
g86
tp117
a(I2
g95
tp118
a(I0
g86
tp119
a(I1
g95
tp120
a(I2
g95
tp121
a(I0
g86
tp122
a(I1
g95
tp123
a(I2
g88
tp124
a(I0
g95
tp125
a(I1
g86
tp126
a(I2
g88
tp127
a(I0
g95
tp128
a(I1
g86
tp129
a(I2
g88
tp130
a(I0
g95
tp131
a(I1
g86
tp132
a(I2
g88
tp133
a(I0
S'South'
p134
tp135
a(I1
g134
tp136
a(I2
g88
tp137
a(I0
g134
tp138
a(I1
g134
tp139
a(I2
g88
tp140
a(I0
g134
tp141
a(I1
g134
tp142
a(I2
g88
tp143
a(I0
g134
tp144
a(I1
g134
tp145
a(I2
g134
tp146
a(I0
g134
tp147
a(I1
g134
tp148
a(I2
g134
tp149
a(I0
g134
tp150
a(I1
g134
tp151
a(I2
g134
tp152
a(I0
g134
tp153
a(I1
g134
tp154
a(I2
g134
tp155
a(I0
g88
tp156
a(I1
g134
tp157
a(I2
g88
tp158
a(I0
g88
tp159
a(I1
g88
tp160
a(I2
g88
tp161
a(I0
g88
tp162
a(I1
g88
tp163
a(I2
g88
tp164
a(I0
g95
tp165
a(I1
g88
tp166
a(I2
g134
tp167
a(I0
g95
tp168
a(I1
g95
tp169
a(I2
g134
tp170
a(I0
g88
tp171
a(I1
g95
tp172
a(I2
g86
tp173
a(I0
g88
tp174
a(I1
g86
tp175
a(I2
g134
tp176
a(I0
g88
tp177
a(I1
g95
tp178
a(I2
g134
tp179
a(I0
g88
tp180
a(I1
g95
tp181
a(I2
g88
tp182
a(I0
g88
tp183
a(I1
g86
tp184
a(I2
g88
tp185
a(I0
g88
tp186
a(I1
g86
tp187
a(I2
g88
tp188
a(I0
g88
tp189
a(I1
g95
tp190
a(I2
g95
tp191
a(I0
g88
tp192
a(I1
g95
tp193
a(I2
g95
tp194
a(I0
g88
tp195
a(I1
g95
tp196
a(I2
g95
tp197
a(I0
g88
tp198
a(I1
g95
tp199
a(I2
g95
tp200
a(I0
g88
tp201
a(I1
g88
tp202
a(I2
g95
tp203
a(I0
g88
tp204
a(I1
g88
tp205
a(I2
g95
tp206
a(I0
g95
tp207
a(I1
g88
tp208
a(I2
g95
tp209
a(I0
g95
tp210
a(I1
g134
tp211
a(I2
g95
tp212
a(I0
g86
tp213
a(I1
g134
tp214
a(I2
g86
tp215
a(I0
g86
tp216
a(I1
g86
tp217
a(I2
g86
tp218
a(I0
g86
tp219
a(I1
g134
tp220
a(I2
g86
tp221
a(I0
g134
tp222
a(I1
g134
tp223
a(I2
g134
tp224
a(I0
g134
tp225
a(I1
g88
tp226
a(I2
g134
tp227
a(I0
g134
tp228
a(I1
g88
tp229
a(I2
g88
tp230
a(I0
g134
tp231
a(I1
g88
tp232
a(I2
g134
tp233
a(I0
g86
tp234
a(I1
g134
tp235
a(I2
g134
tp236
a(I0
g86
tp237
a(I1
g134
tp238
a(I2
g86
tp239
a(I0
g86
tp240
a(I1
g86
tp241
a(I2
g86
tp242
a(I0
g86
tp243
a(I1
g86
tp244
a(I2
g86
tp245
a(I0
g86
tp246
a(I1
g134
tp247
a(I2
g95
tp248
a(I0
g86
tp249
a(I1
g134
tp250
a(I2
g95
tp251
a(I0
g86
tp252
a(I1
g86
tp253
a(I2
g88
tp254
a(I0
g95
tp255
a(I1
g86
tp256
a(I2
g88
tp257
a(I0
g95
tp258
a(I1
g86
tp259
a(I2
g95
tp260
a(I0
g95
tp261
a(I1
g95
tp262
a(I2
g95
tp263
a(I0
g95
tp264
a(I1
g95
tp265
a(I2
g88
tp266
a(I0
g95
tp267
a(I1
g95
tp268
a(I2
g88
tp269
a(I0
g95
tp270
a(I1
g95
tp271
a(I2
g88
tp272
a(I0
g88
tp273
a(I1
g88
tp274
a(I2
g134
tp275
a(I0
g88
tp276
a(I1
g88
tp277
a(I2
g134
tp278
a(I0
g88
tp279
a(I1
g95
tp280
a(I2
g134
tp281
a(I0
g88
tp282
a(I1
g95
tp283
a(I2
g134
tp284
a(I0
g88
tp285
a(I1
g88
tp286
a(I2
g86
tp287
a(I0
g88
tp288
a(I1
g88
tp289
a(I2
g86
tp290
a(I0
g88
tp291
a(I1
g88
tp292
a(I2
g134
tp293
a(I0
g134
tp294
a(I1
g134
tp295
a(I2
g134
tp296
a(I0
g95
tp297
a(I1
g134
tp298
a(I2
g86
tp299
a(I0
g88
tp300
a(I1
g86
tp301
a(I2
g86
tp302
a(I0
g88
tp303
a(I1
g86
tp304
a(I2
g86
tp305
a(I0
g88
tp306
a(I1
g86
tp307
a(I2
g134
tp308
a(I0
g134
tp309
a(I1
g134
tp310
a(I2
g134
tp311
a(I0
g134
tp312
a(I1
g134
tp313
a(I2
g86
tp314
a(I0
g88
tp315
a(I1
g88
tp316
a(I2
g86
tp317
a(I0
g88
tp318
a(I1
g134
tp319
a(I2
g86
tp320
a(I0
g134
tp321
a(I1
g134
tp322
a(I2
g86
tp323
a(I0
g134
tp324
a(I1
g86
tp325
a(I2
g86
tp326
a(I0
g134
tp327
a(I1
g86
tp328
a(I2
g86
tp329
a(I0
g134
tp330
a(I1
g86
tp331
a(I2
g86
tp332
a(I0
g86
tp333
a(I1
g86
tp334
a(I2
g86
tp335
a(I0
g86
tp336
a(I1
g95
tp337
a(I2
g95
tp338
a(I0
g86
tp339
a(I1
g95
tp340
a(I2
g95
tp341
a(I0
g95
tp342
a(I1
g95
tp343
a(I2
g95
tp344
a(I0
g95
tp345
a(I1
g95
tp346
a(I2
g95
tp347
a(I0
g88
tp348
a(I1
g95
tp349
a(I2
g88
tp350
a(I0
g95
tp351
a(I1
g95
tp352
a(I2
g88
tp353
a(I0
g95
tp354
a(I1
g95
tp355
a(I2
g88
tp356
a(I0
S'Stop'
p357
tp358
a(I1
g95
tp359
a(I2
g88
tp360
a(I0
g88
tp361
a(I1
g88
tp362
a(I2
g88
tp363
a(I0
g88
tp364
a(I1
g88
tp365
a(I2
g88
tp366
a(I0
g95
tp367
a(I1
g88
tp368
a(I2
g88
tp369
a(I0
g95
tp370
a(I1
g88
tp371
a(I2
g88
tp372
a(I0
g95
tp373
a(I1
g134
tp374
a(I2
g88
tp375
a(I0
g95
tp376
a(I1
g134
tp377
a(I2
g88
tp378
a(I0
g86
tp379
a(I1
g134
tp380
a(I2
g88
tp381
a(I0
g86
tp382
a(I1
g134
tp383
a(I2
g88
tp384
a(I0
g86
tp385
a(I1
g88
tp386
a(I2
g88
tp387
a(I0
g134
tp388
a(I1
g88
tp389
a(I2
g88
tp390
a(I0
g134
tp391
a(I1
g134
tp392
a(I2
g88
tp393
a(I0
g86
tp394
a(I1
g134
tp395
a(I2
g88
tp396
a(I0
g86
tp397
a(I1
g134
tp398
a(I2
g88
tp399
a(I0
g95
tp400
a(I1
g134
tp401
a(I2
g88
tp402
a(I0
g95
tp403
a(I1
g86
tp404
a(I2
g134
tp405
a(I0
g86
tp406
a(I1
g86
tp407
a(I2
g134
tp408
a(I0
g86
tp409
a(I1
g86
tp410
a(I2
g134
tp411
a(I0
g86
tp412
a(I1
g86
tp413
a(I2
g134
tp414
a(I0
g86
tp415
a(I1
g86
tp416
a(I2
g88
tp417
a(I0
g86
tp418
a(I1
g86
tp419
a(I2
g88
tp420
a(I0
g86
tp421
a(I1
g95
tp422
a(I2
g88
tp423
a(I0
g86
tp424
a(I1
g95
tp425
a(I2
g88
tp426
a(I0
g134
tp427
a(I1
g95
tp428
a(I2
g88
tp429
a(I0
g134
tp430
a(I1
g95
tp431
a(I2
g88
tp432
a(I0
g86
tp433
a(I1
g95
tp434
a(I2
g95
tp435
a(I0
g86
tp436
a(I1
g95
tp437
a(I2
g95
tp438
a(I0
g86
tp439
a(I1
g95
tp440
a(I2
g95
tp441
a(I0
g134
tp442
a(I1
g95
tp443
a(I2
g95
tp444
a(I0
g134
tp445
a(I1
g95
tp446
a(I2
g95
tp447
a(I0
g88
tp448
a(I1
g95
tp449
a(I2
g95
tp450
a(I0
g357
tp451
a(I1
g95
tp452
a(I2
g95
tp453
a(I0
g88
tp454
a(I1
g95
tp455
a(I2
g95
tp456
a(I0
g88
tp457
a(I1
g95
tp458
a(I2
g95
tp459
a(I0
g95
tp460
a(I1
g88
tp461
a(I2
g95
tp462
a(I0
g95
tp463
a(I1
g88
tp464
a(I2
g95
tp465
a(I0
g86
tp466
a(I1
g88
tp467
a(I2
g86
tp468
a(I0
g86
tp469
a(I1
g134
tp470
a(I2
g86
tp471
a(I0
g86
tp472
a(I1
g134
tp473
a(I2
g86
tp474
a(I0
g134
tp475
a(I1
g88
tp476
a(I2
g134
tp477
a(I0
g95
tp478
a(I1
g88
tp479
a(I2
g134
tp480
a(I0
g88
tp481
a(I1
g134
tp482
a(I2
g88
tp483
a(I0
g95
tp484
a(I1
g134
tp485
a(I2
g134
tp486
a(I0
g95
tp487
a(I1
g86
tp488
a(I2
g134
tp489
a(I0
g86
tp490
a(I1
g86
tp491
a(I2
g88
tp492
a(I0
g86
tp493
as.