(dp1
S'layout'
p2
(ilayout
Layout
p3
(dp4
S'capsules'
p5
(lp6
(I18
I1
tp7
a(I1
I9
tp8
asS'numGhosts'
p9
I2
sS'food'
p10
(igame
Grid
p11
(dp12
S'CELLS_PER_INT'
p13
I30
sS'width'
p14
I20
sS'data'
p15
(lp16
(lp17
I00
aI00
aI00
aI00
aI00
aI00
aI00
aI00
aI00
aI00
aI00
aa(lp18
I00
aI01
aI01
aI01
aI01
aI01
aI01
aI01
aI01
aI00
aI00
aa(lp19
I00
aI01
aI00
aI00
aI00
aI01
aI00
aI00
aI00
aI01
aI00
aa(lp20
I00
aI01
aI00
aI01
aI01
aI01
aI01
aI01
aI00
aI01
aI00
aa(lp21
I00
aI01
aI01
aI01
aI00
aI01
aI00
aI01
aI01
aI01
aI00
aa(lp22
I00
aI00
aI00
aI01
aI00
aI01
aI00
aI01
aI00
aI00
aI00
aa(lp23
I00
aI01
aI01
aI01
aI01
aI01
aI01
aI01
aI01
aI01
aI00
aa(lp24
I00
aI01
aI00
aI01
aI00
aI00
aI00
aI01
aI00
aI01
aI00
aa(lp25
I00
aI01
aI00
aI01
aI00
aI00
aI00
aI01
aI00
aI01
aI00
aa(lp26
I00
aI00
aI00
aI01
aI00
aI00
aI00
aI01
aI00
aI01
aI00
aa(lp27
I00
aI01
aI00
aI01
aI00
aI00
aI00
aI01
aI00
aI01
aI00
aa(lp28
I00
aI01
aI00
aI01
aI00
aI00
aI00
aI01
aI00
aI01
aI00
aa(lp29
I00
aI01
aI00
aI01
aI00
aI00
aI00
aI01
aI00
aI01
aI00
aa(lp30
I00
aI01
aI01
aI01
aI01
aI01
aI01
aI01
aI01
aI01
aI00
aa(lp31
I00
aI00
aI00
aI01
aI00
aI01
aI00
aI01
aI00
aI00
aI00
aa(lp32
I00
aI01
aI01
aI01
aI00
aI01
aI00
aI01
aI01
aI01
aI00
aa(lp33
I00
aI01
aI00
aI01
aI01
aI01
aI01
aI01
aI00
aI01
aI00
aa(lp34
I00
aI01
aI00
aI00
aI00
aI01
aI00
aI00
aI00
aI01
aI00
aa(lp35
I00
aI00
aI01
aI01
aI01
aI01
aI01
aI01
aI01
aI01
aI00
aa(lp36
I00
aI00
aI00
aI00
aI00
aI00
aI00
aI00
aI00
aI00
aI00
aasS'height'
p37
I11
sbsS'agentPositions'
p38
(lp39
(I01
(I9
I1
tp40
tp41
a(I00
(I8
I5
tp42
tp43
a(I00
(I11
I5
tp44
tp45
asg37
I11
sg14
I20
sS'walls'
p46
(igame
Grid
p47
(dp48
g13
I30
sg14
I20
sg15
(lp49
(lp50
I01
aI01
aI01
aI01
aI01
aI01
aI01
aI01
aI01
aI01
aI01
aa(lp51
I01
aI00
aI00
aI00
aI00
aI00
aI00
aI00
aI00
aI00
aI01
aa(lp52
I01
aI00
aI01
aI01
aI01
aI00
aI01
aI01
aI01
aI00
aI01
aa(lp53
I01
aI00
aI01
aI00
aI00
aI00
aI00
aI00
aI01
aI00
aI01
aa(lp54
I01
aI00
aI00
aI00
aI01
aI00
aI01
aI00
aI00
aI00
aI01
aa(lp55
I01
aI01
aI01
aI00
aI01
aI00
aI01
aI00
aI01
aI01
aI01
aa(lp56
I01
aI00
aI00
aI00
aI00
aI00
aI00
aI00
aI00
aI00
aI01
aa(lp57
I01
aI00
aI01
aI00
aI01
aI01
aI01
aI00
aI01
aI00
aI01
aa(lp58
I01
aI00
aI01
aI00
aI01
aI00
aI01
aI00
aI01
aI00
aI01
aa(lp59
I01
aI00
aI01
aI00
aI01
aI00
aI00
aI00
aI01
aI00
aI01
aa(lp60
I01
aI00
aI01
aI00
aI01
aI00
aI00
aI00
aI01
aI00
aI01
aa(lp61
I01
aI00
aI01
aI00
aI01
aI00
aI01
aI00
aI01
aI00
aI01
aa(lp62
I01
aI00
aI01
aI00
aI01
aI01
aI01
aI00
aI01
aI00
aI01
aa(lp63
I01
aI00
aI00
aI00
aI00
aI00
aI00
aI00
aI00
aI00
aI01
aa(lp64
I01
aI01
aI01
aI00
aI01
aI00
aI01
aI00
aI01
aI01
aI01
aa(lp65
I01
aI00
aI00
aI00
aI01
aI00
aI01
aI00
aI00
aI00
aI01
aa(lp66
I01
aI00
aI01
aI00
aI00
aI00
aI00
aI00
aI01
aI00
aI01
aa(lp67
I01
aI00
aI01
aI01
aI01
aI00
aI01
aI01
aI01
aI00
aI01
aa(lp68
I01
aI00
aI00
aI00
aI00
aI00
aI00
aI00
aI00
aI00
aI01
aa(lp69
I01
aI01
aI01
aI01
aI01
aI01
aI01
aI01
aI01
aI01
aI01
aasg37
I11
sbsS'totalFood'
p70
I97
sS'layoutText'
p71
(lp72
S'%%%%%%%%%%%%%%%%%%%%'
p73
aS'%o...%........%....%'
p74
aS'%.%%.%.%%%%%%.%.%%.%'
p75
aS'%.%..............%.%'
p76
aS'%.%.%%.%%  %%.%%.%.%'
p77
aS'%......%G  G%......%'
p78
aS'%.%.%%.%%%%%%.%%.%.%'
p79
aS'%.%..............%.%'
p80
aS'%.%%.%.%%%%%%.%.%%.%'
p81
aS'%....%...P....%...o%'
p82
aS'%%%%%%%%%%%%%%%%%%%%'
p83
asbsS'actions'
p84
(lp85
(I0
S'East'
p86
tp87
a(I1
g86
tp88
a(I2
S'West'
p89
tp90
a(I0
g86
tp91
a(I1
g86
tp92
a(I2
g89
tp93
a(I0
g86
tp94
a(I1
S'North'
p95
tp96
a(I2
g89
tp97
a(I0
g86
tp98
a(I1
g89
tp99
a(I2
g86
tp100
a(I0
g95
tp101
a(I1
S'South'
p102
tp103
a(I2
g95
tp104
a(I0
g95
tp105
a(I1
g86
tp106
a(I2
g95
tp107
a(I0
g86
tp108
a(I1
g86
tp109
a(I2
g89
tp110
a(I0
g86
tp111
a(I1
g89
tp112
a(I2
g89
tp113
a(I0
g86
tp114
a(I1
g89
tp115
a(I2
g89
tp116
a(I0
g95
tp117
a(I1
g95
tp118
a(I2
g95
tp119
a(I0
g95
tp120
a(I1
g95
tp121
a(I2
g95
tp122
a(I0
g95
tp123
a(I1
g86
tp124
a(I2
g86
tp125
a(I0
g95
tp126
a(I1
g86
tp127
a(I2
g86
tp128
a(I0
g89
tp129
a(I1
g86
tp130
a(I2
g86
tp131
a(I0
g95
tp132
a(I1
g86
tp133
a(I2
g86
tp134
a(I0
g95
tp135
a(I1
g86
tp136
a(I2
g86
tp137
a(I0
g86
tp138
a(I1
g86
tp139
a(I2
g86
tp140
a(I0
g86
tp141
a(I1
g95
tp142
a(I2
g86
tp143
a(I0
g86
tp144
a(I1
g95
tp145
a(I2
g102
tp146
a(I0
g102
tp147
a(I1
g86
tp148
a(I2
g102
tp149
a(I0
g102
tp150
a(I1
g86
tp151
a(I2
g86
tp152
a(I0
g102
tp153
a(I1
g86
tp154
a(I2
g86
tp155
a(I0
g102
tp156
a(I1
g102
tp157
a(I2
g95
tp158
a(I0
g102
tp159
a(I1
g102
tp160
a(I2
g95
tp161
a(I0
g102
tp162
a(I1
g102
tp163
a(I2
g86
tp164
a(I0
g102
tp165
a(I1
g102
tp166
a(I2
g86
tp167
a(I0
g102
tp168
a(I1
g89
tp169
a(I2
g86
tp170
a(I0
g89
tp171
a(I1
g89
tp172
a(I2
g86
tp173
a(I0
g89
tp174
a(I1
g89
tp175
a(I2
g102
tp176
a(I0
g89
tp177
a(I1
g89
tp178
a(I2
g102
tp179
a(I0
g95
tp180
a(I1
g95
tp181
a(I2
g102
tp182
a(I0
g95
tp183
a(I1
g95
tp184
a(I2
g102
tp185
a(I0
g89
tp186
a(I1
g95
tp187
a(I2
g102
tp188
a(I0
g89
tp189
a(I1
g95
tp190
a(I2
g102
tp191
a(I0
g89
tp192
a(I1
g89
tp193
a(I2
g102
tp194
a(I0
g89
tp195
a(I1
g89
tp196
a(I2
g102
tp197
a(I0
g89
tp198
a(I1
g89
tp199
a(I2
g89
tp200
a(I0
g89
tp201
a(I1
g89
tp202
a(I2
g89
tp203
a(I0
g89
tp204
a(I1
g89
tp205
a(I2
g89
tp206
a(I0
g89
tp207
a(I1
g89
tp208
a(I2
g89
tp209
a(I0
g89
tp210
a(I1
g102
tp211
a(I2
g102
tp212
a(I0
g102
tp213
a(I1
g102
tp214
a(I2
g102
tp215
a(I0
g102
tp216
a(I1
g102
tp217
a(I2
g102
tp218
a(I0
g86
tp219
a(I1
g102
tp220
a(I2
g102
tp221
a(I0
S'Stop'
p222
tp223
a(I1
g102
tp224
a(I2
g89
tp225
a(I0
g222
tp226
a(I1
g102
tp227
a(I2
g89
tp228
a(I0
g86
tp229
a(I1
g102
tp230
a(I2
g89
tp231
a(I0
g89
tp232
a(I1
g102
tp233
a(I2
g89
tp234
a(I0
g89
tp235
a(I1
g102
tp236
a(I2
g89
tp237
a(I0
g95
tp238
a(I1
g102
tp239
a(I2
g89
tp240
a(I0
g95
tp241
a(I1
g102
tp242
a(I2
g95
tp243
a(I0
g89
tp244
a(I1
g102
tp245
a(I2
g95
tp246
a(I0
g89
tp247
a(I1
g89
tp248
a(I2
g95
tp249
a(I0
g102
tp250
a(I1
g89
tp251
a(I2
g95
tp252
a(I0
g102
tp253
a(I1
g89
tp254
a(I2
g95
tp255
a(I0
g89
tp256
a(I1
g89
tp257
a(I2
g95
tp258
a(I0
g89
tp259
a(I1
g89
tp260
a(I2
g95
tp261
a(I0
g89
tp262
a(I1
g89
tp263
a(I2
g95
tp264
a(I0
g95
tp265
a(I1
g89
tp266
a(I2
g86
tp267
a(I0
g95
tp268
a(I1
g89
tp269
a(I2
g86
tp270
a(I0
g95
tp271
a(I1
g89
tp272
a(I2
g86
tp273
a(I0
g95
tp274
a(I1
g89
tp275
a(I2
g86
tp276
a(I0
g86
tp277
a(I1
g89
tp278
a(I2
g95
tp279
a(I0
g86
tp280
a(I1
g89
tp281
a(I2
g95
tp282
a(I0
g102
tp283
a(I1
g89
tp284
a(I2
g95
tp285
a(I0
g102
tp286
a(I1
g89
tp287
a(I2
g95
tp288
a(I0
g95
tp289
a(I1
g95
tp290
a(I2
g86
tp291
a(I0
g95
tp292
a(I1
g95
tp293
a(I2
g86
tp294
a(I0
g95
tp295
a(I1
g89
tp296
a(I2
g86
tp297
a(I0
g95
tp298
a(I1
g89
tp299
a(I2
g102
tp300
a(I0
g86
tp301
a(I1
g102
tp302
a(I2
g102
tp303
a(I0
g86
tp304
a(I1
g102
tp305
a(I2
g102
tp306
a(I0
g86
tp307
a(I1
g89
tp308
a(I2
g102
tp309
a(I0
g86
tp310
a(I1
g89
tp311
a(I2
g102
tp312
a(I0
g86
tp313
a(I1
g89
tp314
a(I2
g102
tp315
a(I0
g86
tp316
a(I1
g95
tp317
a(I2
g102
tp318
a(I0
g86
tp319
a(I1
g95
tp320
a(I2
g102
tp321
a(I0
g86
tp322
a(I1
g95
tp323
a(I2
g89
tp324
a(I0
g86
tp325
a(I1
g95
tp326
a(I2
g89
tp327
a(I0
g86
tp328
a(I1
g86
tp329
a(I2
g89
tp330
a(I0
g95
tp331
a(I1
g86
tp332
a(I2
g95
tp333
a(I0
g95
tp334
a(I1
g86
tp335
a(I2
g95
tp336
a(I0
g89
tp337
a(I1
g86
tp338
a(I2
g89
tp339
a(I0
g89
tp340
a(I1
g86
tp341
a(I2
g89
tp342
a(I0
g89
tp343
a(I1
g95
tp344
a(I2
g89
tp345
a(I0
g89
tp346
a(I1
g95
tp347
a(I2
g89
tp348
a(I0
g89
tp349
a(I1
g89
tp350
a(I2
g89
tp351
a(I0
g89
tp352
a(I1
g89
tp353
a(I2
g89
tp354
a(I0
g89
tp355
a(I1
g89
tp356
a(I2
g89
tp357
a(I0
g102
tp358
a(I1
g102
tp359
a(I2
g89
tp360
a(I0
g102
tp361
a(I1
g102
tp362
a(I2
g89
tp363
a(I0
g102
tp364
a(I1
g102
tp365
a(I2
g89
tp366
a(I0
g102
tp367
a(I1
g102
tp368
a(I2
g89
tp369
a(I0
g89
tp370
a(I1
g86
tp371
a(I2
g89
tp372
a(I0
g89
tp373
a(I1
g86
tp374
a(I2
g95
tp375
a(I0
g86
tp376
a(I1
g86
tp377
a(I2
g95
tp378
a(I0
g86
tp379
a(I1
g102
tp380
a(I2
g95
tp381
a(I0
g102
tp382
a(I1
g102
tp383
a(I2
g95
tp384
a(I0
g95
tp385
a(I1
g86
tp386
a(I2
g86
tp387
a(I0
g95
tp388
a(I1
g86
tp389
a(I2
g95
tp390
a(I0
g95
tp391
a(I1
g86
tp392
a(I2
g95
tp393
a(I0
g222
tp394
a(I1
g86
tp395
a(I2
g89
tp396
a(I0
g89
tp397
a(I1
g86
tp398
a(I2
g89
tp399
a(I0
g89
tp400
a(I1
g86
tp401
a(I2
g89
tp402
a(I0
g95
tp403
a(I1
g86
tp404
a(I2
g102
tp405
a(I0
g95
tp406
a(I1
g95
tp407
a(I2
g102
tp408
a(I0
g89
tp409
a(I1
g95
tp410
a(I2
g102
tp411
a(I0
g89
tp412
a(I1
g86
tp413
a(I2
g102
tp414
a(I0
g89
tp415
a(I1
g86
tp416
a(I2
g102
tp417
a(I0
g102
tp418
a(I1
g86
tp419
a(I2
g102
tp420
a(I0
g102
tp421
a(I1
g86
tp422
a(I2
g102
tp423
a(I0
g102
tp424
a(I1
g86
tp425
a(I2
g102
tp426
a(I0
g102
tp427
a(I1
g95
tp428
a(I2
g102
tp429
a(I0
g86
tp430
a(I1
g95
tp431
a(I2
g102
tp432
a(I0
g86
tp433
a(I1
g95
tp434
a(I2
g102
tp435
a(I0
g95
tp436
a(I1
g95
tp437
a(I2
g102
tp438
a(I0
g95
tp439
a(I1
g89
tp440
a(I2
g86
tp441
a(I0
g86
tp442
a(I1
g89
tp443
a(I2
g86
tp444
a(I0
g86
tp445
a(I1
g89
tp446
a(I2
g86
tp447
a(I0
g86
tp448
a(I1
g89
tp449
a(I2
g86
tp450
a(I0
g86
tp451
a(I1
g89
tp452
a(I2
g86
tp453
a(I0
g86
tp454
a(I1
g89
tp455
a(I2
g86
tp456
a(I0
g86
tp457
a(I1
g102
tp458
a(I2
g95
tp459
a(I0
g86
tp460
a(I1
g102
tp461
a(I2
g95
tp462
a(I0
g86
tp463
a(I1
g102
tp464
a(I2
g95
tp465
a(I0
g86
tp466
a(I1
g102
tp467
a(I2
g95
tp468
a(I0
g86
tp469
a(I1
g86
tp470
a(I2
g86
tp471
a(I0
g102
tp472
a(I1
g86
tp473
a(I2
g86
tp474
a(I0
g222
tp475
a(I1
g86
tp476
a(I2
g86
tp477
a(I0
g102
tp478
a(I1
g86
tp479
a(I2
g86
tp480
a(I0
g86
tp481
a(I1
g102
tp482
a(I2
g102
tp483
a(I0
g86
tp484
a(I1
g102
tp485
a(I2
g102
tp486
a(I0
g89
tp487
a(I1
g102
tp488
a(I2
g102
tp489
a(I0
g89
tp490
a(I1
g102
tp491
a(I2
g102
tp492
a(I0
g102
tp493
a(I1
g86
tp494
a(I2
g86
tp495
a(I0
g95
tp496
a(I1
g86
tp497
a(I2
g86
tp498
a(I0
g95
tp499
a(I1
g86
tp500
a(I2
g86
tp501
a(I0
g95
tp502
a(I1
g86
tp503
a(I2
g86
tp504
a(I0
g86
tp505
a(I1
g86
tp506
a(I2
g86
tp507
a(I0
g86
tp508
a(I1
g86
tp509
a(I2
g86
tp510
a(I0
g89
tp511
a(I1
g95
tp512
a(I2
g86
tp513
a(I0
g86
tp514
a(I1
g95
tp515
a(I2
g86
tp516
a(I0
g86
tp517
a(I1
g95
tp518
a(I2
g86
tp519
a(I0
g102
tp520
a(I1
g95
tp521
a(I2
g86
tp522
a(I0
g102
tp523
a(I1
g95
tp524
a(I2
g86
tp525
a(I0
g102
tp526
a(I1
g95
tp527
a(I2
g86
tp528
a(I0
g95
tp529
a(I1
g95
tp530
a(I2
g86
tp531
a(I0
g222
tp532
a(I1
g95
tp533
a(I2
g86
tp534
a(I0
g222
tp535
a(I1
g95
tp536
a(I2
g95
tp537
a(I0
g102
tp538
a(I1
g95
tp539
a(I2
g95
tp540
a(I0
g222
tp541
a(I1
g95
tp542
a(I2
g86
tp543
a(I0
g95
tp544
a(I1
g95
tp545
a(I2
g86
tp546
a(I0
g86
tp547
as.