(dp1
S'layout'
p2
(ilayout
Layout
p3
(dp4
S'capsules'
p5
(lp6
(I18
I1
tp7
a(I1
I9
tp8
asS'numGhosts'
p9
I2
sS'food'
p10
(igame
Grid
p11
(dp12
S'CELLS_PER_INT'
p13
I30
sS'width'
p14
I20
sS'data'
p15
(lp16
(lp17
I00
aI00
aI00
aI00
aI00
aI00
aI00
aI00
aI00
aI00
aI00
aa(lp18
I00
aI01
aI01
aI01
aI01
aI01
aI01
aI01
aI01
aI00
aI00
aa(lp19
I00
aI01
aI00
aI00
aI00
aI01
aI00
aI00
aI00
aI01
aI00
aa(lp20
I00
aI01
aI00
aI01
aI01
aI01
aI01
aI01
aI00
aI01
aI00
aa(lp21
I00
aI01
aI01
aI01
aI00
aI01
aI00
aI01
aI01
aI01
aI00
aa(lp22
I00
aI00
aI00
aI01
aI00
aI01
aI00
aI01
aI00
aI00
aI00
aa(lp23
I00
aI01
aI01
aI01
aI01
aI01
aI01
aI01
aI01
aI01
aI00
aa(lp24
I00
aI01
aI00
aI01
aI00
aI00
aI00
aI01
aI00
aI01
aI00
aa(lp25
I00
aI01
aI00
aI01
aI00
aI00
aI00
aI01
aI00
aI01
aI00
aa(lp26
I00
aI00
aI00
aI01
aI00
aI00
aI00
aI01
aI00
aI01
aI00
aa(lp27
I00
aI01
aI00
aI01
aI00
aI00
aI00
aI01
aI00
aI01
aI00
aa(lp28
I00
aI01
aI00
aI01
aI00
aI00
aI00
aI01
aI00
aI01
aI00
aa(lp29
I00
aI01
aI00
aI01
aI00
aI00
aI00
aI01
aI00
aI01
aI00
aa(lp30
I00
aI01
aI01
aI01
aI01
aI01
aI01
aI01
aI01
aI01
aI00
aa(lp31
I00
aI00
aI00
aI01
aI00
aI01
aI00
aI01
aI00
aI00
aI00
aa(lp32
I00
aI01
aI01
aI01
aI00
aI01
aI00
aI01
aI01
aI01
aI00
aa(lp33
I00
aI01
aI00
aI01
aI01
aI01
aI01
aI01
aI00
aI01
aI00
aa(lp34
I00
aI01
aI00
aI00
aI00
aI01
aI00
aI00
aI00
aI01
aI00
aa(lp35
I00
aI00
aI01
aI01
aI01
aI01
aI01
aI01
aI01
aI01
aI00
aa(lp36
I00
aI00
aI00
aI00
aI00
aI00
aI00
aI00
aI00
aI00
aI00
aasS'height'
p37
I11
sbsS'agentPositions'
p38
(lp39
(I01
(I9
I1
tp40
tp41
a(I00
(I8
I5
tp42
tp43
a(I00
(I11
I5
tp44
tp45
asg37
I11
sg14
I20
sS'walls'
p46
(igame
Grid
p47
(dp48
g13
I30
sg14
I20
sg15
(lp49
(lp50
I01
aI01
aI01
aI01
aI01
aI01
aI01
aI01
aI01
aI01
aI01
aa(lp51
I01
aI00
aI00
aI00
aI00
aI00
aI00
aI00
aI00
aI00
aI01
aa(lp52
I01
aI00
aI01
aI01
aI01
aI00
aI01
aI01
aI01
aI00
aI01
aa(lp53
I01
aI00
aI01
aI00
aI00
aI00
aI00
aI00
aI01
aI00
aI01
aa(lp54
I01
aI00
aI00
aI00
aI01
aI00
aI01
aI00
aI00
aI00
aI01
aa(lp55
I01
aI01
aI01
aI00
aI01
aI00
aI01
aI00
aI01
aI01
aI01
aa(lp56
I01
aI00
aI00
aI00
aI00
aI00
aI00
aI00
aI00
aI00
aI01
aa(lp57
I01
aI00
aI01
aI00
aI01
aI01
aI01
aI00
aI01
aI00
aI01
aa(lp58
I01
aI00
aI01
aI00
aI01
aI00
aI01
aI00
aI01
aI00
aI01
aa(lp59
I01
aI00
aI01
aI00
aI01
aI00
aI00
aI00
aI01
aI00
aI01
aa(lp60
I01
aI00
aI01
aI00
aI01
aI00
aI00
aI00
aI01
aI00
aI01
aa(lp61
I01
aI00
aI01
aI00
aI01
aI00
aI01
aI00
aI01
aI00
aI01
aa(lp62
I01
aI00
aI01
aI00
aI01
aI01
aI01
aI00
aI01
aI00
aI01
aa(lp63
I01
aI00
aI00
aI00
aI00
aI00
aI00
aI00
aI00
aI00
aI01
aa(lp64
I01
aI01
aI01
aI00
aI01
aI00
aI01
aI00
aI01
aI01
aI01
aa(lp65
I01
aI00
aI00
aI00
aI01
aI00
aI01
aI00
aI00
aI00
aI01
aa(lp66
I01
aI00
aI01
aI00
aI00
aI00
aI00
aI00
aI01
aI00
aI01
aa(lp67
I01
aI00
aI01
aI01
aI01
aI00
aI01
aI01
aI01
aI00
aI01
aa(lp68
I01
aI00
aI00
aI00
aI00
aI00
aI00
aI00
aI00
aI00
aI01
aa(lp69
I01
aI01
aI01
aI01
aI01
aI01
aI01
aI01
aI01
aI01
aI01
aasg37
I11
sbsS'totalFood'
p70
I97
sS'layoutText'
p71
(lp72
S'%%%%%%%%%%%%%%%%%%%%'
p73
aS'%o...%........%....%'
p74
aS'%.%%.%.%%%%%%.%.%%.%'
p75
aS'%.%..............%.%'
p76
aS'%.%.%%.%%  %%.%%.%.%'
p77
aS'%......%G  G%......%'
p78
aS'%.%.%%.%%%%%%.%%.%.%'
p79
aS'%.%..............%.%'
p80
aS'%.%%.%.%%%%%%.%.%%.%'
p81
aS'%....%...P....%...o%'
p82
aS'%%%%%%%%%%%%%%%%%%%%'
p83
asbsS'actions'
p84
(lp85
(I0
S'East'
p86
tp87
a(I1
g86
tp88
a(I2
S'West'
p89
tp90
a(I0
g86
tp91
a(I1
g86
tp92
a(I2
g89
tp93
a(I0
g86
tp94
a(I1
S'North'
p95
tp96
a(I2
g89
tp97
a(I0
g86
tp98
a(I1
g89
tp99
a(I2
g86
tp100
a(I0
g95
tp101
a(I1
g95
tp102
a(I2
g86
tp103
a(I0
g95
tp104
a(I1
g86
tp105
a(I2
g86
tp106
a(I0
g89
tp107
a(I1
S'South'
p108
tp109
a(I2
g89
tp110
a(I0
g89
tp111
a(I1
g89
tp112
a(I2
g89
tp113
a(I0
g89
tp114
a(I1
g95
tp115
a(I2
g95
tp116
a(I0
g89
tp117
a(I1
g86
tp118
a(I2
g86
tp119
a(I0
g89
tp120
a(I1
g108
tp121
a(I2
g95
tp122
a(I0
g89
tp123
a(I1
g89
tp124
a(I2
g89
tp125
a(I0
g89
tp126
a(I1
g108
tp127
a(I2
g108
tp128
a(I0
g95
tp129
a(I1
g86
tp130
a(I2
g86
tp131
a(I0
g95
tp132
a(I1
g95
tp133
a(I2
g95
tp134
a(I0
g89
tp135
a(I1
g89
tp136
a(I2
g89
tp137
a(I0
g89
tp138
a(I1
g95
tp139
a(I2
g89
tp140
a(I0
g89
tp141
a(I1
g89
tp142
a(I2
g89
tp143
a(I0
g108
tp144
a(I1
g89
tp145
a(I2
g89
tp146
a(I0
g108
tp147
a(I1
g89
tp148
a(I2
g108
tp149
a(I0
g86
tp150
a(I1
g108
tp151
a(I2
g108
tp152
a(I0
g108
tp153
a(I1
g108
tp154
a(I2
g108
tp155
a(I0
g108
tp156
a(I1
g108
tp157
a(I2
g108
tp158
a(I0
g89
tp159
a(I1
g108
tp160
a(I2
g108
tp161
a(I0
g89
tp162
a(I1
g86
tp163
a(I2
g108
tp164
a(I0
g89
tp165
a(I1
g86
tp166
a(I2
g86
tp167
a(I0
g95
tp168
a(I1
g86
tp169
a(I2
g86
tp170
a(I0
g95
tp171
a(I1
g86
tp172
a(I2
g86
tp173
a(I0
g95
tp174
a(I1
g86
tp175
a(I2
g86
tp176
a(I0
g95
tp177
a(I1
g86
tp178
a(I2
g86
tp179
a(I0
g95
tp180
a(I1
g86
tp181
a(I2
g86
tp182
a(I0
g95
tp183
a(I1
g86
tp184
a(I2
g86
tp185
a(I0
g95
tp186
a(I1
g86
tp187
a(I2
g95
tp188
a(I0
g95
tp189
a(I1
g108
tp190
a(I2
g95
tp191
a(I0
g86
tp192
a(I1
g108
tp193
a(I2
g95
tp194
a(I0
g86
tp195
a(I1
g108
tp196
a(I2
g89
tp197
a(I0
g86
tp198
a(I1
g108
tp199
a(I2
g89
tp200
a(I0
g108
tp201
a(I1
g86
tp202
a(I2
g89
tp203
a(I0
g108
tp204
a(I1
g86
tp205
a(I2
g89
tp206
a(I0
g86
tp207
a(I1
g86
tp208
a(I2
g89
tp209
a(I0
g86
tp210
a(I1
g86
tp211
a(I2
g89
tp212
a(I0
g86
tp213
a(I1
g86
tp214
a(I2
g89
tp215
a(I0
g86
tp216
a(I1
g86
tp217
a(I2
g89
tp218
a(I0
g86
tp219
a(I1
g95
tp220
a(I2
g89
tp221
a(I0
g86
tp222
a(I1
g95
tp223
a(I2
g89
tp224
a(I0
g86
tp225
a(I1
g95
tp226
a(I2
g89
tp227
a(I0
g86
tp228
a(I1
g95
tp229
a(I2
g89
tp230
a(I0
g86
tp231
a(I1
g95
tp232
a(I2
g89
tp233
a(I0
g95
tp234
a(I1
g95
tp235
a(I2
g89
tp236
a(I0
g95
tp237
a(I1
g95
tp238
a(I2
g89
tp239
a(I0
g89
tp240
a(I1
g95
tp241
a(I2
g89
tp242
a(I0
g89
tp243
a(I1
g95
tp244
a(I2
g89
tp245
a(I0
g89
tp246
a(I1
g95
tp247
a(I2
g89
tp248
a(I0
g89
tp249
a(I1
g95
tp250
a(I2
g89
tp251
a(I0
g89
tp252
a(I1
g95
tp253
a(I2
g89
tp254
a(I0
g89
tp255
a(I1
g95
tp256
a(I2
g95
tp257
a(I0
g89
tp258
a(I1
g95
tp259
a(I2
g95
tp260
a(I0
g108
tp261
a(I1
g95
tp262
a(I2
g95
tp263
a(I0
g108
tp264
a(I1
g95
tp265
a(I2
g95
tp266
a(I0
g108
tp267
a(I1
g89
tp268
a(I2
g89
tp269
a(I0
g95
tp270
a(I1
g89
tp271
a(I2
g89
tp272
a(I0
g89
tp273
a(I1
g89
tp274
a(I2
g89
tp275
a(I0
g89
tp276
a(I1
g89
tp277
a(I2
g89
tp278
a(I0
g89
tp279
a(I1
g89
tp280
a(I2
g95
tp281
a(I0
g108
tp282
a(I1
g89
tp283
a(I2
g95
tp284
a(I0
g108
tp285
a(I1
g108
tp286
a(I2
g95
tp287
a(I0
g89
tp288
a(I1
g108
tp289
a(I2
g95
tp290
a(I0
g86
tp291
a(I1
g108
tp292
a(I2
g95
tp293
a(I0
g108
tp294
a(I1
g108
tp295
a(I2
g95
tp296
a(I0
g108
tp297
a(I1
g89
tp298
a(I2
g95
tp299
a(I0
g86
tp300
a(I1
g89
tp301
a(I2
g95
tp302
a(I0
g86
tp303
a(I1
g89
tp304
a(I2
g86
tp305
a(I0
g86
tp306
a(I1
g89
tp307
a(I2
g86
tp308
a(I0
g108
tp309
a(I1
g108
tp310
a(I2
g86
tp311
a(I0
g108
tp312
a(I1
g108
tp313
a(I2
g86
tp314
a(I0
g86
tp315
a(I1
g108
tp316
a(I2
g108
tp317
a(I0
g86
tp318
a(I1
g108
tp319
a(I2
g108
tp320
a(I0
g86
tp321
a(I1
g108
tp322
a(I2
g89
tp323
a(I0
g86
tp324
a(I1
g108
tp325
a(I2
g108
tp326
a(I0
g86
tp327
a(I1
g89
tp328
a(I2
g108
tp329
a(I0
g89
tp330
a(I1
g89
tp331
a(I2
g108
tp332
a(I0
S'Stop'
p333
tp334
a(I1
g89
tp335
as.