(dp1
S'layout'
p2
(ilayout
Layout
p3
(dp4
S'capsules'
p5
(lp6
(I18
I1
tp7
a(I1
I9
tp8
asS'numGhosts'
p9
I2
sS'food'
p10
(igame
Grid
p11
(dp12
S'CELLS_PER_INT'
p13
I30
sS'width'
p14
I20
sS'data'
p15
(lp16
(lp17
I00
aI00
aI00
aI00
aI00
aI00
aI00
aI00
aI00
aI00
aI00
aa(lp18
I00
aI01
aI01
aI01
aI01
aI01
aI01
aI01
aI01
aI00
aI00
aa(lp19
I00
aI01
aI00
aI00
aI00
aI01
aI00
aI00
aI00
aI01
aI00
aa(lp20
I00
aI01
aI00
aI01
aI01
aI01
aI01
aI01
aI00
aI01
aI00
aa(lp21
I00
aI01
aI01
aI01
aI00
aI01
aI00
aI01
aI01
aI01
aI00
aa(lp22
I00
aI00
aI00
aI01
aI00
aI01
aI00
aI01
aI00
aI00
aI00
aa(lp23
I00
aI01
aI01
aI01
aI01
aI01
aI01
aI01
aI01
aI01
aI00
aa(lp24
I00
aI01
aI00
aI01
aI00
aI00
aI00
aI01
aI00
aI01
aI00
aa(lp25
I00
aI01
aI00
aI01
aI00
aI00
aI00
aI01
aI00
aI01
aI00
aa(lp26
I00
aI00
aI00
aI01
aI00
aI00
aI00
aI01
aI00
aI01
aI00
aa(lp27
I00
aI01
aI00
aI01
aI00
aI00
aI00
aI01
aI00
aI01
aI00
aa(lp28
I00
aI01
aI00
aI01
aI00
aI00
aI00
aI01
aI00
aI01
aI00
aa(lp29
I00
aI01
aI00
aI01
aI00
aI00
aI00
aI01
aI00
aI01
aI00
aa(lp30
I00
aI01
aI01
aI01
aI01
aI01
aI01
aI01
aI01
aI01
aI00
aa(lp31
I00
aI00
aI00
aI01
aI00
aI01
aI00
aI01
aI00
aI00
aI00
aa(lp32
I00
aI01
aI01
aI01
aI00
aI01
aI00
aI01
aI01
aI01
aI00
aa(lp33
I00
aI01
aI00
aI01
aI01
aI01
aI01
aI01
aI00
aI01
aI00
aa(lp34
I00
aI01
aI00
aI00
aI00
aI01
aI00
aI00
aI00
aI01
aI00
aa(lp35
I00
aI00
aI01
aI01
aI01
aI01
aI01
aI01
aI01
aI01
aI00
aa(lp36
I00
aI00
aI00
aI00
aI00
aI00
aI00
aI00
aI00
aI00
aI00
aasS'height'
p37
I11
sbsS'agentPositions'
p38
(lp39
(I01
(I9
I1
tp40
tp41
a(I00
(I8
I5
tp42
tp43
a(I00
(I11
I5
tp44
tp45
asg37
I11
sg14
I20
sS'walls'
p46
(igame
Grid
p47
(dp48
g13
I30
sg14
I20
sg15
(lp49
(lp50
I01
aI01
aI01
aI01
aI01
aI01
aI01
aI01
aI01
aI01
aI01
aa(lp51
I01
aI00
aI00
aI00
aI00
aI00
aI00
aI00
aI00
aI00
aI01
aa(lp52
I01
aI00
aI01
aI01
aI01
aI00
aI01
aI01
aI01
aI00
aI01
aa(lp53
I01
aI00
aI01
aI00
aI00
aI00
aI00
aI00
aI01
aI00
aI01
aa(lp54
I01
aI00
aI00
aI00
aI01
aI00
aI01
aI00
aI00
aI00
aI01
aa(lp55
I01
aI01
aI01
aI00
aI01
aI00
aI01
aI00
aI01
aI01
aI01
aa(lp56
I01
aI00
aI00
aI00
aI00
aI00
aI00
aI00
aI00
aI00
aI01
aa(lp57
I01
aI00
aI01
aI00
aI01
aI01
aI01
aI00
aI01
aI00
aI01
aa(lp58
I01
aI00
aI01
aI00
aI01
aI00
aI01
aI00
aI01
aI00
aI01
aa(lp59
I01
aI00
aI01
aI00
aI01
aI00
aI00
aI00
aI01
aI00
aI01
aa(lp60
I01
aI00
aI01
aI00
aI01
aI00
aI00
aI00
aI01
aI00
aI01
aa(lp61
I01
aI00
aI01
aI00
aI01
aI00
aI01
aI00
aI01
aI00
aI01
aa(lp62
I01
aI00
aI01
aI00
aI01
aI01
aI01
aI00
aI01
aI00
aI01
aa(lp63
I01
aI00
aI00
aI00
aI00
aI00
aI00
aI00
aI00
aI00
aI01
aa(lp64
I01
aI01
aI01
aI00
aI01
aI00
aI01
aI00
aI01
aI01
aI01
aa(lp65
I01
aI00
aI00
aI00
aI01
aI00
aI01
aI00
aI00
aI00
aI01
aa(lp66
I01
aI00
aI01
aI00
aI00
aI00
aI00
aI00
aI01
aI00
aI01
aa(lp67
I01
aI00
aI01
aI01
aI01
aI00
aI01
aI01
aI01
aI00
aI01
aa(lp68
I01
aI00
aI00
aI00
aI00
aI00
aI00
aI00
aI00
aI00
aI01
aa(lp69
I01
aI01
aI01
aI01
aI01
aI01
aI01
aI01
aI01
aI01
aI01
aasg37
I11
sbsS'totalFood'
p70
I97
sS'layoutText'
p71
(lp72
S'%%%%%%%%%%%%%%%%%%%%'
p73
aS'%o...%........%....%'
p74
aS'%.%%.%.%%%%%%.%.%%.%'
p75
aS'%.%..............%.%'
p76
aS'%.%.%%.%%  %%.%%.%.%'
p77
aS'%......%G  G%......%'
p78
aS'%.%.%%.%%%%%%.%%.%.%'
p79
aS'%.%..............%.%'
p80
aS'%.%%.%.%%%%%%.%.%%.%'
p81
aS'%....%...P....%...o%'
p82
aS'%%%%%%%%%%%%%%%%%%%%'
p83
asbsS'actions'
p84
(lp85
(I0
S'West'
p86
tp87
a(I1
S'East'
p88
tp89
a(I2
g86
tp90
a(I0
g86
tp91
a(I1
S'North'
p92
tp93
a(I2
g86
tp94
a(I0
g86
tp95
a(I1
g92
tp96
a(I2
g92
tp97
a(I0
g92
tp98
a(I1
g86
tp99
a(I2
g92
tp100
a(I0
g92
tp101
a(I1
g86
tp102
a(I2
g88
tp103
a(I0
g86
tp104
a(I1
g86
tp105
a(I2
g88
tp106
a(I0
g86
tp107
a(I1
S'South'
p108
tp109
a(I2
g88
tp110
a(I0
g86
tp111
a(I1
g108
tp112
a(I2
g88
tp113
a(I0
g92
tp114
a(I1
g108
tp115
a(I2
g92
tp116
a(I0
g92
tp117
a(I1
g108
tp118
a(I2
g92
tp119
a(I0
g86
tp120
a(I1
g108
tp121
a(I2
g86
tp122
a(I0
g86
tp123
a(I1
g108
tp124
a(I2
g86
tp125
a(I0
g92
tp126
a(I1
g88
tp127
a(I2
g86
tp128
a(I0
g92
tp129
a(I1
g88
tp130
a(I2
g86
tp131
a(I0
g92
tp132
a(I1
g88
tp133
a(I2
g86
tp134
a(I0
g92
tp135
a(I1
g88
tp136
a(I2
g86
tp137
a(I0
g88
tp138
a(I1
g88
tp139
a(I2
g86
tp140
a(I0
g88
tp141
a(I1
g88
tp142
a(I2
g86
tp143
a(I0
g88
tp144
a(I1
g88
tp145
a(I2
g86
tp146
a(I0
g108
tp147
a(I1
g88
tp148
a(I2
g108
tp149
a(I0
S'Stop'
p150
tp151
a(I1
g88
tp152
a(I2
g108
tp153
a(I0
g108
tp154
a(I1
g88
tp155
a(I2
g108
tp156
a(I0
g88
tp157
a(I1
g88
tp158
a(I2
g108
tp159
a(I0
g86
tp160
a(I1
g92
tp161
a(I2
g88
tp162
a(I0
g86
tp163
a(I1
g92
tp164
a(I2
g88
tp165
a(I0
g108
tp166
a(I1
g92
tp167
a(I2
g88
tp168
a(I0
g108
tp169
a(I1
g92
tp170
a(I2
g88
tp171
a(I0
g88
tp172
a(I1
g92
tp173
a(I2
g88
tp174
a(I0
g88
tp175
a(I1
g92
tp176
a(I2
g88
tp177
a(I0
g88
tp178
a(I1
g92
tp179
a(I2
g88
tp180
a(I0
g108
tp181
a(I1
g92
tp182
a(I2
g88
tp183
a(I0
g108
tp184
a(I1
g88
tp185
a(I2
g88
tp186
a(I0
g88
tp187
a(I1
g88
tp188
a(I2
g88
tp189
a(I0
g88
tp190
a(I1
g88
tp191
a(I2
g88
tp192
a(I0
g88
tp193
a(I1
g88
tp194
a(I2
g88
tp195
a(I0
g88
tp196
a(I1
g88
tp197
a(I2
g88
tp198
a(I0
g88
tp199
a(I1
g88
tp200
a(I2
g88
tp201
a(I0
g88
tp202
a(I1
g92
tp203
a(I2
g88
tp204
a(I0
g88
tp205
a(I1
g92
tp206
a(I2
g88
tp207
a(I0
g108
tp208
a(I1
g92
tp209
a(I2
g88
tp210
a(I0
g108
tp211
a(I1
g92
tp212
a(I2
g88
tp213
a(I0
g86
tp214
a(I1
g86
tp215
a(I2
g92
tp216
a(I0
g86
tp217
a(I1
g86
tp218
a(I2
g92
tp219
a(I0
g86
tp220
a(I1
g92
tp221
a(I2
g92
tp222
a(I0
g88
tp223
a(I1
g92
tp224
a(I2
g92
tp225
a(I0
g88
tp226
a(I1
g92
tp227
a(I2
g88
tp228
a(I0
g88
tp229
a(I1
g92
tp230
a(I2
g88
tp231
a(I0
g92
tp232
a(I1
g88
tp233
a(I2
g88
tp234
a(I0
g92
tp235
a(I1
g88
tp236
a(I2
g88
tp237
a(I0
g92
tp238
a(I1
g88
tp239
a(I2
g88
tp240
a(I0
g92
tp241
a(I1
g88
tp242
a(I2
g88
tp243
a(I0
g92
tp244
a(I1
g88
tp245
a(I2
g108
tp246
a(I0
g92
tp247
a(I1
g88
tp248
a(I2
g108
tp249
a(I0
g86
tp250
a(I1
g108
tp251
a(I2
g108
tp252
a(I0
g86
tp253
a(I1
g108
tp254
a(I2
g108
tp255
a(I0
g86
tp256
a(I1
g108
tp257
a(I2
g108
tp258
a(I0
g86
tp259
a(I1
g108
tp260
a(I2
g108
tp261
a(I0
g86
tp262
a(I1
g108
tp263
a(I2
g108
tp264
a(I0
g86
tp265
a(I1
g86
tp266
a(I2
g108
tp267
a(I0
g86
tp268
a(I1
g86
tp269
a(I2
g108
tp270
a(I0
g108
tp271
a(I1
g108
tp272
a(I2
g108
tp273
a(I0
g92
tp274
a(I1
g108
tp275
a(I2
g86
tp276
a(I0
g92
tp277
a(I1
g86
tp278
a(I2
g86
tp279
a(I0
g150
tp280
a(I1
g86
tp281
a(I2
g86
tp282
a(I0
g92
tp283
a(I1
g86
tp284
a(I2
g92
tp285
a(I0
g88
tp286
a(I1
g108
tp287
a(I2
g92
tp288
a(I0
g88
tp289
a(I1
g108
tp290
a(I2
g88
tp291
a(I0
g88
tp292
a(I1
g86
tp293
a(I2
g92
tp294
a(I0
g88
tp295
a(I1
g86
tp296
a(I2
g92
tp297
a(I0
g88
tp298
a(I1
g86
tp299
a(I2
g92
tp300
a(I0
g88
tp301
a(I1
g86
tp302
a(I2
g92
tp303
a(I0
g88
tp304
a(I1
g86
tp305
a(I2
g86
tp306
a(I0
g108
tp307
a(I1
g86
tp308
a(I2
g86
tp309
a(I0
g150
tp310
a(I1
g86
tp311
a(I2
g86
tp312
a(I0
g92
tp313
a(I1
g92
tp314
a(I2
g108
tp315
a(I0
g108
tp316
a(I1
g92
tp317
a(I2
g108
tp318
a(I0
g108
tp319
a(I1
g92
tp320
a(I2
g108
tp321
a(I0
g88
tp322
a(I1
g92
tp323
a(I2
g108
tp324
a(I0
g88
tp325
a(I1
g86
tp326
a(I2
g108
tp327
a(I0
g92
tp328
a(I1
g86
tp329
a(I2
g108
tp330
a(I0
g92
tp331
a(I1
g86
tp332
a(I2
g86
tp333
a(I0
g88
tp334
a(I1
g86
tp335
a(I2
g86
tp336
a(I0
g88
tp337
a(I1
g86
tp338
a(I2
g86
tp339
a(I0
g88
tp340
a(I1
g108
tp341
a(I2
g86
tp342
a(I0
g108
tp343
a(I1
g108
tp344
a(I2
g86
tp345
a(I0
g108
tp346
a(I1
g108
tp347
a(I2
g86
tp348
a(I0
g108
tp349
a(I1
g108
tp350
a(I2
g86
tp351
a(I0
g108
tp352
a(I1
g88
tp353
a(I2
g92
tp354
a(I0
g86
tp355
a(I1
g88
tp356
a(I2
g92
tp357
a(I0
g86
tp358
a(I1
g88
tp359
a(I2
g86
tp360
a(I0
g108
tp361
a(I1
g92
tp362
a(I2
g86
tp363
a(I0
g108
tp364
a(I1
g92
tp365
a(I2
g108
tp366
a(I0
g86
tp367
a(I1
g86
tp368
a(I2
g108
tp369
a(I0
g86
tp370
a(I1
g92
tp371
a(I2
g86
tp372
a(I0
g88
tp373
a(I1
g92
tp374
a(I2
g86
tp375
a(I0
g108
tp376
a(I1
g86
tp377
a(I2
g86
tp378
a(I0
g108
tp379
a(I1
g86
tp380
a(I2
g92
tp381
a(I0
g88
tp382
a(I1
g108
tp383
a(I2
g92
tp384
a(I0
g88
tp385
a(I1
g108
tp386
a(I2
g92
tp387
a(I0
g88
tp388
a(I1
g108
tp389
a(I2
g92
tp390
a(I0
g92
tp391
a(I1
g108
tp392
a(I2
g92
tp393
a(I0
g92
tp394
a(I1
g108
tp395
a(I2
g88
tp396
a(I0
g92
tp397
a(I1
g108
tp398
a(I2
g88
tp399
a(I0
g92
tp400
a(I1
g88
tp401
a(I2
g88
tp402
a(I0
g86
tp403
a(I1
g88
tp404
a(I2
g88
tp405
a(I0
g150
tp406
a(I1
g88
tp407
a(I2
g92
tp408
a(I0
g86
tp409
a(I1
g88
tp410
a(I2
g92
tp411
a(I0
g92
tp412
a(I1
g88
tp413
a(I2
g92
tp414
a(I0
g92
tp415
a(I1
g88
tp416
a(I2
g92
tp417
a(I0
g108
tp418
a(I1
g92
tp419
a(I2
g88
tp420
a(I0
g108
tp421
a(I1
g92
tp422
a(I2
g88
tp423
a(I0
g86
tp424
a(I1
g92
tp425
a(I2
g92
tp426
a(I0
g86
tp427
a(I1
g92
tp428
a(I2
g92
tp429
a(I0
g86
tp430
a(I1
g86
tp431
a(I2
g92
tp432
a(I0
g108
tp433
a(I1
g86
tp434
a(I2
g92
tp435
a(I0
g108
tp436
a(I1
g92
tp437
a(I2
g86
tp438
a(I0
g86
tp439
a(I1
g92
tp440
a(I2
g86
tp441
a(I0
g86
tp442
a(I1
g92
tp443
a(I2
g86
tp444
a(I0
g86
tp445
a(I1
g92
tp446
a(I2
g86
tp447
a(I0
g86
tp448
a(I1
g92
tp449
a(I2
g86
tp450
a(I0
g86
tp451
a(I1
g92
tp452
a(I2
g86
tp453
a(I0
g86
tp454
a(I1
g92
tp455
a(I2
g108
tp456
a(I0
g86
tp457
a(I1
g92
tp458
a(I2
g108
tp459
a(I0
g86
tp460
a(I1
g88
tp461
a(I2
g108
tp462
a(I0
g86
tp463
a(I1
g88
tp464
a(I2
g108
tp465
a(I0
g108
tp466
a(I1
g88
tp467
a(I2
g108
tp468
a(I0
g108
tp469
a(I1
g88
tp470
a(I2
g108
tp471
a(I0
g86
tp472
a(I1
g88
tp473
a(I2
g108
tp474
a(I0
g86
tp475
a(I1
g88
tp476
a(I2
g108
tp477
a(I0
g86
tp478
a(I1
g88
tp479
a(I2
g88
tp480
a(I0
g92
tp481
a(I1
g88
tp482
a(I2
g88
tp483
a(I0
g92
tp484
a(I1
g88
tp485
a(I2
g88
tp486
a(I0
g92
tp487
as.