(dp1
S'layout'
p2
(ilayout
Layout
p3
(dp4
S'capsules'
p5
(lp6
(I18
I1
tp7
a(I1
I9
tp8
asS'numGhosts'
p9
I2
sS'food'
p10
(igame
Grid
p11
(dp12
S'CELLS_PER_INT'
p13
I30
sS'width'
p14
I20
sS'data'
p15
(lp16
(lp17
I00
aI00
aI00
aI00
aI00
aI00
aI00
aI00
aI00
aI00
aI00
aa(lp18
I00
aI01
aI01
aI01
aI01
aI01
aI01
aI01
aI01
aI00
aI00
aa(lp19
I00
aI01
aI00
aI00
aI00
aI01
aI00
aI00
aI00
aI01
aI00
aa(lp20
I00
aI01
aI00
aI01
aI01
aI01
aI01
aI01
aI00
aI01
aI00
aa(lp21
I00
aI01
aI01
aI01
aI00
aI01
aI00
aI01
aI01
aI01
aI00
aa(lp22
I00
aI00
aI00
aI01
aI00
aI01
aI00
aI01
aI00
aI00
aI00
aa(lp23
I00
aI01
aI01
aI01
aI01
aI01
aI01
aI01
aI01
aI01
aI00
aa(lp24
I00
aI01
aI00
aI01
aI00
aI00
aI00
aI01
aI00
aI01
aI00
aa(lp25
I00
aI01
aI00
aI01
aI00
aI00
aI00
aI01
aI00
aI01
aI00
aa(lp26
I00
aI00
aI00
aI01
aI00
aI00
aI00
aI01
aI00
aI01
aI00
aa(lp27
I00
aI01
aI00
aI01
aI00
aI00
aI00
aI01
aI00
aI01
aI00
aa(lp28
I00
aI01
aI00
aI01
aI00
aI00
aI00
aI01
aI00
aI01
aI00
aa(lp29
I00
aI01
aI00
aI01
aI00
aI00
aI00
aI01
aI00
aI01
aI00
aa(lp30
I00
aI01
aI01
aI01
aI01
aI01
aI01
aI01
aI01
aI01
aI00
aa(lp31
I00
aI00
aI00
aI01
aI00
aI01
aI00
aI01
aI00
aI00
aI00
aa(lp32
I00
aI01
aI01
aI01
aI00
aI01
aI00
aI01
aI01
aI01
aI00
aa(lp33
I00
aI01
aI00
aI01
aI01
aI01
aI01
aI01
aI00
aI01
aI00
aa(lp34
I00
aI01
aI00
aI00
aI00
aI01
aI00
aI00
aI00
aI01
aI00
aa(lp35
I00
aI00
aI01
aI01
aI01
aI01
aI01
aI01
aI01
aI01
aI00
aa(lp36
I00
aI00
aI00
aI00
aI00
aI00
aI00
aI00
aI00
aI00
aI00
aasS'height'
p37
I11
sbsS'agentPositions'
p38
(lp39
(I01
(I9
I1
tp40
tp41
a(I00
(I8
I5
tp42
tp43
a(I00
(I11
I5
tp44
tp45
asg37
I11
sg14
I20
sS'walls'
p46
(igame
Grid
p47
(dp48
g13
I30
sg14
I20
sg15
(lp49
(lp50
I01
aI01
aI01
aI01
aI01
aI01
aI01
aI01
aI01
aI01
aI01
aa(lp51
I01
aI00
aI00
aI00
aI00
aI00
aI00
aI00
aI00
aI00
aI01
aa(lp52
I01
aI00
aI01
aI01
aI01
aI00
aI01
aI01
aI01
aI00
aI01
aa(lp53
I01
aI00
aI01
aI00
aI00
aI00
aI00
aI00
aI01
aI00
aI01
aa(lp54
I01
aI00
aI00
aI00
aI01
aI00
aI01
aI00
aI00
aI00
aI01
aa(lp55
I01
aI01
aI01
aI00
aI01
aI00
aI01
aI00
aI01
aI01
aI01
aa(lp56
I01
aI00
aI00
aI00
aI00
aI00
aI00
aI00
aI00
aI00
aI01
aa(lp57
I01
aI00
aI01
aI00
aI01
aI01
aI01
aI00
aI01
aI00
aI01
aa(lp58
I01
aI00
aI01
aI00
aI01
aI00
aI01
aI00
aI01
aI00
aI01
aa(lp59
I01
aI00
aI01
aI00
aI01
aI00
aI00
aI00
aI01
aI00
aI01
aa(lp60
I01
aI00
aI01
aI00
aI01
aI00
aI00
aI00
aI01
aI00
aI01
aa(lp61
I01
aI00
aI01
aI00
aI01
aI00
aI01
aI00
aI01
aI00
aI01
aa(lp62
I01
aI00
aI01
aI00
aI01
aI01
aI01
aI00
aI01
aI00
aI01
aa(lp63
I01
aI00
aI00
aI00
aI00
aI00
aI00
aI00
aI00
aI00
aI01
aa(lp64
I01
aI01
aI01
aI00
aI01
aI00
aI01
aI00
aI01
aI01
aI01
aa(lp65
I01
aI00
aI00
aI00
aI01
aI00
aI01
aI00
aI00
aI00
aI01
aa(lp66
I01
aI00
aI01
aI00
aI00
aI00
aI00
aI00
aI01
aI00
aI01
aa(lp67
I01
aI00
aI01
aI01
aI01
aI00
aI01
aI01
aI01
aI00
aI01
aa(lp68
I01
aI00
aI00
aI00
aI00
aI00
aI00
aI00
aI00
aI00
aI01
aa(lp69
I01
aI01
aI01
aI01
aI01
aI01
aI01
aI01
aI01
aI01
aI01
aasg37
I11
sbsS'totalFood'
p70
I97
sS'layoutText'
p71
(lp72
S'%%%%%%%%%%%%%%%%%%%%'
p73
aS'%o...%........%....%'
p74
aS'%.%%.%.%%%%%%.%.%%.%'
p75
aS'%.%..............%.%'
p76
aS'%.%.%%.%%  %%.%%.%.%'
p77
aS'%......%G  G%......%'
p78
aS'%.%.%%.%%%%%%.%%.%.%'
p79
aS'%.%..............%.%'
p80
aS'%.%%.%.%%%%%%.%.%%.%'
p81
aS'%....%...P....%...o%'
p82
aS'%%%%%%%%%%%%%%%%%%%%'
p83
asbsS'actions'
p84
(lp85
(I0
S'East'
p86
tp87
a(I1
g86
tp88
a(I2
S'West'
p89
tp90
a(I0
g86
tp91
a(I1
S'North'
p92
tp93
a(I2
g92
tp94
a(I0
g86
tp95
a(I1
g92
tp96
a(I2
g89
tp97
a(I0
g86
tp98
a(I1
g86
tp99
a(I2
g92
tp100
a(I0
g92
tp101
a(I1
g86
tp102
a(I2
g86
tp103
a(I0
g92
tp104
a(I1
g86
tp105
a(I2
S'South'
p106
tp107
a(I0
g92
tp108
a(I1
g86
tp109
a(I2
g106
tp110
a(I0
g92
tp111
a(I1
g86
tp112
a(I2
g89
tp113
a(I0
g92
tp114
a(I1
g86
tp115
a(I2
g89
tp116
a(I0
g92
tp117
a(I1
g86
tp118
a(I2
g86
tp119
a(I0
g86
tp120
a(I1
g106
tp121
a(I2
g92
tp122
a(I0
g86
tp123
a(I1
g106
tp124
a(I2
g92
tp125
a(I0
g86
tp126
a(I1
g86
tp127
a(I2
g86
tp128
a(I0
g106
tp129
a(I1
g86
tp130
a(I2
g86
tp131
a(I0
g106
tp132
a(I1
g106
tp133
a(I2
g86
tp134
a(I0
g86
tp135
a(I1
g106
tp136
a(I2
g86
tp137
a(I0
g86
tp138
a(I1
g106
tp139
a(I2
g92
tp140
a(I0
g106
tp141
a(I1
g106
tp142
a(I2
g92
tp143
a(I0
g106
tp144
a(I1
g89
tp145
a(I2
g89
tp146
a(I0
g106
tp147
a(I1
g89
tp148
a(I2
g89
tp149
a(I0
g106
tp150
a(I1
g89
tp151
a(I2
g89
tp152
a(I0
S'Stop'
p153
tp154
a(I1
g89
tp155
a(I2
g89
tp156
a(I0
g89
tp157
a(I1
g92
tp158
a(I2
g89
tp159
a(I0
g89
tp160
a(I1
g92
tp161
a(I2
g89
tp162
a(I0
g153
tp163
a(I1
g92
tp164
a(I2
g89
tp165
a(I0
g89
tp166
a(I1
g92
tp167
a(I2
g89
tp168
a(I0
g153
tp169
a(I1
g89
tp170
a(I2
g89
tp171
a(I0
g153
tp172
a(I1
g89
tp173
a(I2
g89
tp174
a(I0
g92
tp175
a(I1
g89
tp176
a(I2
g89
tp177
a(I0
g153
tp178
a(I1
g89
tp179
a(I2
g89
tp180
a(I0
g92
tp181
a(I1
g92
tp182
a(I2
g106
tp183
a(I0
g86
tp184
a(I1
g92
tp185
a(I2
g106
tp186
a(I0
g92
tp187
a(I1
g92
tp188
a(I2
g106
tp189
a(I0
g92
tp190
a(I1
g92
tp191
a(I2
g106
tp192
a(I0
g89
tp193
a(I1
g86
tp194
a(I2
g106
tp195
a(I0
g86
tp196
a(I1
g86
tp197
a(I2
g106
tp198
a(I0
g153
tp199
a(I1
g86
tp200
a(I2
g106
tp201
a(I0
g86
tp202
a(I1
g86
tp203
a(I2
g106
tp204
a(I0
g86
tp205
a(I1
g86
tp206
a(I2
g89
tp207
a(I0
g92
tp208
a(I1
g86
tp209
a(I2
g89
tp210
a(I0
g92
tp211
a(I1
g92
tp212
a(I2
g89
tp213
a(I0
g92
tp214
a(I1
g92
tp215
a(I2
g89
tp216
a(I0
g92
tp217
a(I1
g92
tp218
a(I2
g89
tp219
a(I0
g89
tp220
a(I1
g92
tp221
a(I2
g89
tp222
a(I0
g89
tp223
a(I1
g89
tp224
a(I2
g92
tp225
a(I0
g89
tp226
a(I1
g89
tp227
a(I2
g92
tp228
a(I0
g153
tp229
a(I1
g92
tp230
a(I2
g92
tp231
a(I0
g86
tp232
a(I1
g92
tp233
a(I2
g92
tp234
a(I0
g153
tp235
a(I1
g92
tp236
a(I2
g86
tp237
a(I0
g86
tp238
a(I1
g92
tp239
a(I2
g86
tp240
a(I0
g153
tp241
a(I1
g86
tp242
a(I2
g86
tp243
a(I0
g86
tp244
a(I1
g86
tp245
a(I2
g86
tp246
a(I0
g153
tp247
a(I1
g86
tp248
a(I2
g86
tp249
a(I0
g106
tp250
a(I1
g86
tp251
a(I2
g86
tp252
a(I0
g153
tp253
a(I1
g86
tp254
a(I2
g86
tp255
a(I0
g106
tp256
a(I1
g86
tp257
a(I2
g86
tp258
a(I0
g106
tp259
a(I1
g106
tp260
a(I2
g86
tp261
a(I0
g106
tp262
a(I1
g106
tp263
a(I2
g86
tp264
a(I0
g89
tp265
a(I1
g106
tp266
a(I2
g86
tp267
a(I0
g89
tp268
a(I1
g106
tp269
a(I2
g86
tp270
a(I0
g89
tp271
a(I1
g106
tp272
a(I2
g106
tp273
a(I0
g89
tp274
a(I1
g106
tp275
a(I2
g106
tp276
a(I0
g89
tp277
a(I1
g89
tp278
a(I2
g86
tp279
a(I0
g92
tp280
a(I1
g89
tp281
a(I2
g92
tp282
a(I0
g92
tp283
a(I1
g89
tp284
a(I2
g89
tp285
a(I0
g89
tp286
a(I1
g89
tp287
a(I2
g106
tp288
a(I0
g153
tp289
a(I1
g89
tp290
a(I2
g86
tp291
a(I0
g89
tp292
a(I1
g106
tp293
a(I2
g86
tp294
a(I0
g86
tp295
a(I1
g106
tp296
a(I2
g89
tp297
a(I0
g89
tp298
a(I1
g106
tp299
a(I2
g89
tp300
a(I0
g89
tp301
a(I1
g106
tp302
a(I2
g92
tp303
a(I0
g153
tp304
a(I1
g89
tp305
a(I2
g92
tp306
a(I0
g86
tp307
a(I1
g89
tp308
a(I2
g89
tp309
a(I0
g89
tp310
a(I1
g89
tp311
a(I2
g89
tp312
a(I0
g89
tp313
a(I1
g89
tp314
a(I2
g89
tp315
a(I0
g89
tp316
a(I1
g89
tp317
a(I2
g106
tp318
a(I0
g89
tp319
a(I1
g89
tp320
a(I2
g106
tp321
a(I0
g89
tp322
a(I1
g89
tp323
a(I2
g106
tp324
a(I0
g106
tp325
a(I1
g92
tp326
a(I2
g106
tp327
a(I0
g153
tp328
a(I1
g92
tp329
a(I2
g106
tp330
a(I0
g106
tp331
a(I1
g86
tp332
a(I2
g106
tp333
a(I0
g106
tp334
a(I1
g86
tp335
a(I2
g86
tp336
a(I0
g106
tp337
a(I1
g86
tp338
a(I2
g86
tp339
a(I0
g106
tp340
a(I1
g86
tp341
a(I2
g86
tp342
a(I0
g106
tp343
a(I1
g86
tp344
a(I2
g86
tp345
a(I0
g86
tp346
a(I1
g86
tp347
a(I2
g86
tp348
a(I0
g86
tp349
a(I1
g86
tp350
a(I2
g86
tp351
a(I0
g89
tp352
a(I1
g106
tp353
a(I2
g86
tp354
a(I0
g89
tp355
a(I1
g106
tp356
a(I2
g92
tp357
a(I0
g92
tp358
a(I1
g89
tp359
a(I2
g92
tp360
a(I0
g92
tp361
a(I1
g89
tp362
a(I2
g92
tp363
a(I0
g89
tp364
a(I1
g89
tp365
a(I2
g92
tp366
a(I0
g89
tp367
a(I1
g89
tp368
a(I2
g86
tp369
a(I0
g89
tp370
a(I1
g89
tp371
a(I2
g86
tp372
a(I0
g92
tp373
a(I1
g89
tp374
a(I2
g86
tp375
a(I0
g92
tp376
a(I1
g89
tp377
a(I2
g106
tp378
a(I0
g89
tp379
a(I1
g92
tp380
a(I2
g106
tp381
a(I0
g89
tp382
a(I1
g92
tp383
a(I2
g89
tp384
a(I0
g92
tp385
a(I1
g89
tp386
a(I2
g106
tp387
a(I0
g92
tp388
a(I1
g89
tp389
a(I2
g106
tp390
a(I0
g92
tp391
a(I1
g89
tp392
a(I2
g86
tp393
a(I0
g92
tp394
a(I1
g92
tp395
a(I2
g86
tp396
a(I0
g86
tp397
a(I1
g92
tp398
a(I2
g86
tp399
a(I0
g86
tp400
a(I1
g92
tp401
a(I2
g86
tp402
a(I0
g86
tp403
a(I1
g92
tp404
a(I2
g86
tp405
a(I0
g106
tp406
a(I1
g86
tp407
a(I2
g92
tp408
a(I0
g106
tp409
a(I1
g86
tp410
a(I2
g92
tp411
a(I0
g89
tp412
a(I1
g86
tp413
a(I2
g92
tp414
a(I0
g106
tp415
a(I1
g86
tp416
a(I2
g92
tp417
a(I0
g106
tp418
a(I1
g86
tp419
a(I2
g92
tp420
a(I0
g86
tp421
a(I1
g86
tp422
a(I2
g92
tp423
a(I0
g153
tp424
a(I1
g92
tp425
a(I2
g92
tp426
a(I0
g86
tp427
a(I1
g92
tp428
a(I2
g92
tp429
a(I0
g89
tp430
a(I1
g92
tp431
a(I2
g89
tp432
a(I0
g89
tp433
a(I1
g92
tp434
a(I2
g89
tp435
a(I0
g89
tp436
a(I1
g86
tp437
a(I2
g89
tp438
a(I0
g89
tp439
a(I1
g86
tp440
a(I2
g89
tp441
a(I0
g106
tp442
a(I1
g86
tp443
a(I2
g89
tp444
a(I0
g106
tp445
a(I1
g86
tp446
a(I2
g89
tp447
a(I0
g92
tp448
a(I1
g86
tp449
a(I2
g89
tp450
a(I0
g106
tp451
a(I1
g86
tp452
a(I2
g89
tp453
a(I0
g106
tp454
a(I1
g86
tp455
a(I2
g89
tp456
a(I0
g106
tp457
a(I1
g86
tp458
a(I2
g89
tp459
a(I0
g86
tp460
a(I1
g86
tp461
a(I2
g92
tp462
a(I0
g86
tp463
a(I1
g86
tp464
a(I2
g92
tp465
a(I0
g86
tp466
a(I1
g86
tp467
a(I2
g92
tp468
a(I0
g92
tp469
a(I1
g86
tp470
a(I2
g92
tp471
a(I0
g106
tp472
a(I1
g86
tp473
a(I2
g86
tp474
a(I0
g92
tp475
a(I1
g86
tp476
a(I2
g86
tp477
a(I0
g92
tp478
a(I1
g86
tp479
a(I2
g86
tp480
a(I0
g86
tp481
a(I1
g86
tp482
a(I2
g86
tp483
a(I0
g86
tp484
a(I1
g86
tp485
a(I2
g86
tp486
a(I0
g86
tp487
a(I1
g86
tp488
a(I2
g86
tp489
a(I0
g86
tp490
a(I1
g86
tp491
a(I2
g106
tp492
a(I0
g86
tp493
a(I1
g86
tp494
a(I2
g106
tp495
a(I0
g86
tp496
a(I1
g106
tp497
a(I2
g106
tp498
a(I0
g86
tp499
a(I1
g106
tp500
a(I2
g106
tp501
a(I0
g86
tp502
a(I1
g106
tp503
a(I2
g106
tp504
a(I0
g86
tp505
a(I1
g106
tp506
a(I2
g106
tp507
a(I0
g86
tp508
a(I1
g106
tp509
a(I2
g106
tp510
a(I0
g89
tp511
a(I1
g106
tp512
a(I2
g106
tp513
a(I0
g92
tp514
a(I1
g106
tp515
a(I2
g89
tp516
a(I0
g92
tp517
a(I1
g89
tp518
a(I2
g106
tp519
a(I0
g92
tp520
a(I1
g89
tp521
a(I2
g106
tp522
a(I0
g92
tp523
a(I1
g89
tp524
a(I2
g86
tp525
a(I0
g92
tp526
a(I1
g92
tp527
a(I2
g86
tp528
a(I0
g92
tp529
a(I1
g92
tp530
a(I2
g86
tp531
a(I0
g89
tp532
a(I1
g92
tp533
a(I2
g92
tp534
a(I0
g89
tp535
a(I1
g92
tp536
a(I2
g92
tp537
a(I0
g89
tp538
a(I1
g92
tp539
a(I2
g92
tp540
a(I0
g89
tp541
a(I1
g92
tp542
a(I2
g92
tp543
a(I0
g89
tp544
a(I1
g89
tp545
a(I2
g92
tp546
a(I0
g86
tp547
a(I1
g89
tp548
a(I2
g92
tp549
a(I0
g89
tp550
a(I1
g89
tp551
a(I2
g92
tp552
a(I0
g89
tp553
a(I1
g89
tp554
a(I2
g92
tp555
a(I0
g89
tp556
a(I1
g89
tp557
a(I2
g89
tp558
a(I0
g106
tp559
a(I1
g89
tp560
a(I2
g89
tp561
a(I0
g106
tp562
a(I1
g89
tp563
a(I2
g89
tp564
a(I0
g89
tp565
a(I1
g106
tp566
a(I2
g106
tp567
a(I0
g153
tp568
a(I1
g106
tp569
a(I2
g106
tp570
a(I0
g89
tp571
a(I1
g86
tp572
a(I2
g89
tp573
a(I0
g86
tp574
a(I1
g86
tp575
a(I2
g89
tp576
a(I0
g86
tp577
a(I1
g86
tp578
a(I2
g92
tp579
a(I0
g153
tp580
a(I1
g106
tp581
a(I2
g92
tp582
a(I0
g86
tp583
a(I1
g106
tp584
a(I2
g89
tp585
a(I0
g86
tp586
a(I1
g86
tp587
a(I2
g89
tp588
a(I0
g86
tp589
a(I1
g86
tp590
a(I2
g89
tp591
a(I0
g86
tp592
a(I1
g89
tp593
a(I2
g89
tp594
a(I0
g86
tp595
a(I1
g89
tp596
a(I2
g89
tp597
a(I0
g86
tp598
a(I1
g92
tp599
a(I2
g89
tp600
a(I0
g86
tp601
a(I1
g86
tp602
a(I2
g89
tp603
a(I0
g86
tp604
a(I1
g106
tp605
a(I2
g106
tp606
a(I0
g86
tp607
a(I1
g89
tp608
a(I2
g106
tp609
a(I0
g92
tp610
as.