(dp1
S'layout'
p2
(ilayout
Layout
p3
(dp4
S'capsules'
p5
(lp6
(I18
I1
tp7
a(I1
I9
tp8
asS'numGhosts'
p9
I2
sS'food'
p10
(igame
Grid
p11
(dp12
S'CELLS_PER_INT'
p13
I30
sS'width'
p14
I20
sS'data'
p15
(lp16
(lp17
I00
aI00
aI00
aI00
aI00
aI00
aI00
aI00
aI00
aI00
aI00
aa(lp18
I00
aI01
aI01
aI01
aI01
aI01
aI01
aI01
aI01
aI00
aI00
aa(lp19
I00
aI01
aI00
aI00
aI00
aI01
aI00
aI00
aI00
aI01
aI00
aa(lp20
I00
aI01
aI00
aI01
aI01
aI01
aI01
aI01
aI00
aI01
aI00
aa(lp21
I00
aI01
aI01
aI01
aI00
aI01
aI00
aI01
aI01
aI01
aI00
aa(lp22
I00
aI00
aI00
aI01
aI00
aI01
aI00
aI01
aI00
aI00
aI00
aa(lp23
I00
aI01
aI01
aI01
aI01
aI01
aI01
aI01
aI01
aI01
aI00
aa(lp24
I00
aI01
aI00
aI01
aI00
aI00
aI00
aI01
aI00
aI01
aI00
aa(lp25
I00
aI01
aI00
aI01
aI00
aI00
aI00
aI01
aI00
aI01
aI00
aa(lp26
I00
aI00
aI00
aI01
aI00
aI00
aI00
aI01
aI00
aI01
aI00
aa(lp27
I00
aI01
aI00
aI01
aI00
aI00
aI00
aI01
aI00
aI01
aI00
aa(lp28
I00
aI01
aI00
aI01
aI00
aI00
aI00
aI01
aI00
aI01
aI00
aa(lp29
I00
aI01
aI00
aI01
aI00
aI00
aI00
aI01
aI00
aI01
aI00
aa(lp30
I00
aI01
aI01
aI01
aI01
aI01
aI01
aI01
aI01
aI01
aI00
aa(lp31
I00
aI00
aI00
aI01
aI00
aI01
aI00
aI01
aI00
aI00
aI00
aa(lp32
I00
aI01
aI01
aI01
aI00
aI01
aI00
aI01
aI01
aI01
aI00
aa(lp33
I00
aI01
aI00
aI01
aI01
aI01
aI01
aI01
aI00
aI01
aI00
aa(lp34
I00
aI01
aI00
aI00
aI00
aI01
aI00
aI00
aI00
aI01
aI00
aa(lp35
I00
aI00
aI01
aI01
aI01
aI01
aI01
aI01
aI01
aI01
aI00
aa(lp36
I00
aI00
aI00
aI00
aI00
aI00
aI00
aI00
aI00
aI00
aI00
aasS'height'
p37
I11
sbsS'agentPositions'
p38
(lp39
(I01
(I9
I1
tp40
tp41
a(I00
(I8
I5
tp42
tp43
a(I00
(I11
I5
tp44
tp45
asg37
I11
sg14
I20
sS'walls'
p46
(igame
Grid
p47
(dp48
g13
I30
sg14
I20
sg15
(lp49
(lp50
I01
aI01
aI01
aI01
aI01
aI01
aI01
aI01
aI01
aI01
aI01
aa(lp51
I01
aI00
aI00
aI00
aI00
aI00
aI00
aI00
aI00
aI00
aI01
aa(lp52
I01
aI00
aI01
aI01
aI01
aI00
aI01
aI01
aI01
aI00
aI01
aa(lp53
I01
aI00
aI01
aI00
aI00
aI00
aI00
aI00
aI01
aI00
aI01
aa(lp54
I01
aI00
aI00
aI00
aI01
aI00
aI01
aI00
aI00
aI00
aI01
aa(lp55
I01
aI01
aI01
aI00
aI01
aI00
aI01
aI00
aI01
aI01
aI01
aa(lp56
I01
aI00
aI00
aI00
aI00
aI00
aI00
aI00
aI00
aI00
aI01
aa(lp57
I01
aI00
aI01
aI00
aI01
aI01
aI01
aI00
aI01
aI00
aI01
aa(lp58
I01
aI00
aI01
aI00
aI01
aI00
aI01
aI00
aI01
aI00
aI01
aa(lp59
I01
aI00
aI01
aI00
aI01
aI00
aI00
aI00
aI01
aI00
aI01
aa(lp60
I01
aI00
aI01
aI00
aI01
aI00
aI00
aI00
aI01
aI00
aI01
aa(lp61
I01
aI00
aI01
aI00
aI01
aI00
aI01
aI00
aI01
aI00
aI01
aa(lp62
I01
aI00
aI01
aI00
aI01
aI01
aI01
aI00
aI01
aI00
aI01
aa(lp63
I01
aI00
aI00
aI00
aI00
aI00
aI00
aI00
aI00
aI00
aI01
aa(lp64
I01
aI01
aI01
aI00
aI01
aI00
aI01
aI00
aI01
aI01
aI01
aa(lp65
I01
aI00
aI00
aI00
aI01
aI00
aI01
aI00
aI00
aI00
aI01
aa(lp66
I01
aI00
aI01
aI00
aI00
aI00
aI00
aI00
aI01
aI00
aI01
aa(lp67
I01
aI00
aI01
aI01
aI01
aI00
aI01
aI01
aI01
aI00
aI01
aa(lp68
I01
aI00
aI00
aI00
aI00
aI00
aI00
aI00
aI00
aI00
aI01
aa(lp69
I01
aI01
aI01
aI01
aI01
aI01
aI01
aI01
aI01
aI01
aI01
aasg37
I11
sbsS'totalFood'
p70
I97
sS'layoutText'
p71
(lp72
S'%%%%%%%%%%%%%%%%%%%%'
p73
aS'%o...%........%....%'
p74
aS'%.%%.%.%%%%%%.%.%%.%'
p75
aS'%.%..............%.%'
p76
aS'%.%.%%.%%  %%.%%.%.%'
p77
aS'%......%G  G%......%'
p78
aS'%.%.%%.%%%%%%.%%.%.%'
p79
aS'%.%..............%.%'
p80
aS'%.%%.%.%%%%%%.%.%%.%'
p81
aS'%....%...P....%...o%'
p82
aS'%%%%%%%%%%%%%%%%%%%%'
p83
asbsS'actions'
p84
(lp85
(I0
S'West'
p86
tp87
a(I1
S'East'
p88
tp89
a(I2
g86
tp90
a(I0
S'Stop'
p91
tp92
a(I1
g88
tp93
a(I2
S'North'
p94
tp95
a(I0
g86
tp96
a(I1
g94
tp97
a(I2
g86
tp98
a(I0
g86
tp99
a(I1
g94
tp100
a(I2
g94
tp101
a(I0
g94
tp102
a(I1
g86
tp103
a(I2
g86
tp104
a(I0
g94
tp105
a(I1
g86
tp106
a(I2
g86
tp107
a(I0
g88
tp108
a(I1
g86
tp109
a(I2
g86
tp110
a(I0
g88
tp111
a(I1
g86
tp112
a(I2
S'South'
p113
tp114
a(I0
g88
tp115
a(I1
g94
tp116
a(I2
g113
tp117
a(I0
g88
tp118
a(I1
g94
tp119
a(I2
g86
tp120
a(I0
g88
tp121
a(I1
g88
tp122
a(I2
g86
tp123
a(I0
g88
tp124
a(I1
g88
tp125
a(I2
g86
tp126
a(I0
g88
tp127
a(I1
g88
tp128
a(I2
g94
tp129
a(I0
g113
tp130
a(I1
g88
tp131
a(I2
g94
tp132
a(I0
g113
tp133
a(I1
g88
tp134
a(I2
g88
tp135
a(I0
g86
tp136
a(I1
g88
tp137
a(I2
g88
tp138
a(I0
g86
tp139
a(I1
g88
tp140
a(I2
g88
tp141
a(I0
g86
tp142
a(I1
g113
tp143
a(I2
g94
tp144
a(I0
g88
tp145
a(I1
g113
tp146
a(I2
g94
tp147
a(I0
g88
tp148
a(I1
g88
tp149
a(I2
g88
tp150
a(I0
g88
tp151
a(I1
g88
tp152
a(I2
g88
tp153
a(I0
g94
tp154
a(I1
g88
tp155
a(I2
g88
tp156
a(I0
g94
tp157
a(I1
g113
tp158
a(I2
g88
tp159
a(I0
g88
tp160
a(I1
g113
tp161
a(I2
g88
tp162
a(I0
g88
tp163
a(I1
g88
tp164
a(I2
g88
tp165
a(I0
g113
tp166
a(I1
g88
tp167
a(I2
g88
tp168
a(I0
g113
tp169
a(I1
g113
tp170
a(I2
g113
tp171
a(I0
g88
tp172
a(I1
g113
tp173
a(I2
g113
tp174
a(I0
g88
tp175
a(I1
g113
tp176
a(I2
g88
tp177
a(I0
g91
tp178
a(I1
g113
tp179
a(I2
g88
tp180
a(I0
g86
tp181
a(I1
g86
tp182
a(I2
g88
tp183
a(I0
g86
tp184
a(I1
g86
tp185
a(I2
g113
tp186
a(I0
g94
tp187
a(I1
g86
tp188
a(I2
g113
tp189
a(I0
g94
tp190
a(I1
g94
tp191
a(I2
g88
tp192
a(I0
g86
tp193
a(I1
g94
tp194
a(I2
g88
tp195
a(I0
g91
tp196
a(I1
g86
tp197
as.