(dp1
S'layout'
p2
(ilayout
Layout
p3
(dp4
S'capsules'
p5
(lp6
(I18
I1
tp7
a(I1
I9
tp8
asS'numGhosts'
p9
I2
sS'food'
p10
(igame
Grid
p11
(dp12
S'CELLS_PER_INT'
p13
I30
sS'width'
p14
I20
sS'data'
p15
(lp16
(lp17
I00
aI00
aI00
aI00
aI00
aI00
aI00
aI00
aI00
aI00
aI00
aa(lp18
I00
aI01
aI01
aI01
aI01
aI01
aI01
aI01
aI01
aI00
aI00
aa(lp19
I00
aI01
aI00
aI00
aI00
aI01
aI00
aI00
aI00
aI01
aI00
aa(lp20
I00
aI01
aI00
aI01
aI01
aI01
aI01
aI01
aI00
aI01
aI00
aa(lp21
I00
aI01
aI01
aI01
aI00
aI01
aI00
aI01
aI01
aI01
aI00
aa(lp22
I00
aI00
aI00
aI01
aI00
aI01
aI00
aI01
aI00
aI00
aI00
aa(lp23
I00
aI01
aI01
aI01
aI01
aI01
aI01
aI01
aI01
aI01
aI00
aa(lp24
I00
aI01
aI00
aI01
aI00
aI00
aI00
aI01
aI00
aI01
aI00
aa(lp25
I00
aI01
aI00
aI01
aI00
aI00
aI00
aI01
aI00
aI01
aI00
aa(lp26
I00
aI00
aI00
aI01
aI00
aI00
aI00
aI01
aI00
aI01
aI00
aa(lp27
I00
aI01
aI00
aI01
aI00
aI00
aI00
aI01
aI00
aI01
aI00
aa(lp28
I00
aI01
aI00
aI01
aI00
aI00
aI00
aI01
aI00
aI01
aI00
aa(lp29
I00
aI01
aI00
aI01
aI00
aI00
aI00
aI01
aI00
aI01
aI00
aa(lp30
I00
aI01
aI01
aI01
aI01
aI01
aI01
aI01
aI01
aI01
aI00
aa(lp31
I00
aI00
aI00
aI01
aI00
aI01
aI00
aI01
aI00
aI00
aI00
aa(lp32
I00
aI01
aI01
aI01
aI00
aI01
aI00
aI01
aI01
aI01
aI00
aa(lp33
I00
aI01
aI00
aI01
aI01
aI01
aI01
aI01
aI00
aI01
aI00
aa(lp34
I00
aI01
aI00
aI00
aI00
aI01
aI00
aI00
aI00
aI01
aI00
aa(lp35
I00
aI00
aI01
aI01
aI01
aI01
aI01
aI01
aI01
aI01
aI00
aa(lp36
I00
aI00
aI00
aI00
aI00
aI00
aI00
aI00
aI00
aI00
aI00
aasS'height'
p37
I11
sbsS'agentPositions'
p38
(lp39
(I01
(I9
I1
tp40
tp41
a(I00
(I8
I5
tp42
tp43
a(I00
(I11
I5
tp44
tp45
asg37
I11
sg14
I20
sS'walls'
p46
(igame
Grid
p47
(dp48
g13
I30
sg14
I20
sg15
(lp49
(lp50
I01
aI01
aI01
aI01
aI01
aI01
aI01
aI01
aI01
aI01
aI01
aa(lp51
I01
aI00
aI00
aI00
aI00
aI00
aI00
aI00
aI00
aI00
aI01
aa(lp52
I01
aI00
aI01
aI01
aI01
aI00
aI01
aI01
aI01
aI00
aI01
aa(lp53
I01
aI00
aI01
aI00
aI00
aI00
aI00
aI00
aI01
aI00
aI01
aa(lp54
I01
aI00
aI00
aI00
aI01
aI00
aI01
aI00
aI00
aI00
aI01
aa(lp55
I01
aI01
aI01
aI00
aI01
aI00
aI01
aI00
aI01
aI01
aI01
aa(lp56
I01
aI00
aI00
aI00
aI00
aI00
aI00
aI00
aI00
aI00
aI01
aa(lp57
I01
aI00
aI01
aI00
aI01
aI01
aI01
aI00
aI01
aI00
aI01
aa(lp58
I01
aI00
aI01
aI00
aI01
aI00
aI01
aI00
aI01
aI00
aI01
aa(lp59
I01
aI00
aI01
aI00
aI01
aI00
aI00
aI00
aI01
aI00
aI01
aa(lp60
I01
aI00
aI01
aI00
aI01
aI00
aI00
aI00
aI01
aI00
aI01
aa(lp61
I01
aI00
aI01
aI00
aI01
aI00
aI01
aI00
aI01
aI00
aI01
aa(lp62
I01
aI00
aI01
aI00
aI01
aI01
aI01
aI00
aI01
aI00
aI01
aa(lp63
I01
aI00
aI00
aI00
aI00
aI00
aI00
aI00
aI00
aI00
aI01
aa(lp64
I01
aI01
aI01
aI00
aI01
aI00
aI01
aI00
aI01
aI01
aI01
aa(lp65
I01
aI00
aI00
aI00
aI01
aI00
aI01
aI00
aI00
aI00
aI01
aa(lp66
I01
aI00
aI01
aI00
aI00
aI00
aI00
aI00
aI01
aI00
aI01
aa(lp67
I01
aI00
aI01
aI01
aI01
aI00
aI01
aI01
aI01
aI00
aI01
aa(lp68
I01
aI00
aI00
aI00
aI00
aI00
aI00
aI00
aI00
aI00
aI01
aa(lp69
I01
aI01
aI01
aI01
aI01
aI01
aI01
aI01
aI01
aI01
aI01
aasg37
I11
sbsS'totalFood'
p70
I97
sS'layoutText'
p71
(lp72
S'%%%%%%%%%%%%%%%%%%%%'
p73
aS'%o...%........%....%'
p74
aS'%.%%.%.%%%%%%.%.%%.%'
p75
aS'%.%..............%.%'
p76
aS'%.%.%%.%%  %%.%%.%.%'
p77
aS'%......%G  G%......%'
p78
aS'%.%.%%.%%%%%%.%%.%.%'
p79
aS'%.%..............%.%'
p80
aS'%.%%.%.%%%%%%.%.%%.%'
p81
aS'%....%...P....%...o%'
p82
aS'%%%%%%%%%%%%%%%%%%%%'
p83
asbsS'actions'
p84
(lp85
(I0
S'East'
p86
tp87
a(I1
g86
tp88
a(I2
S'West'
p89
tp90
a(I0
g86
tp91
a(I1
S'North'
p92
tp93
a(I2
g89
tp94
a(I0
g86
tp95
a(I1
g86
tp96
a(I2
g89
tp97
a(I0
g86
tp98
a(I1
S'South'
p99
tp100
a(I2
g86
tp101
a(I0
g92
tp102
a(I1
g86
tp103
a(I2
g92
tp104
a(I0
g92
tp105
a(I1
g89
tp106
a(I2
g86
tp107
a(I0
g89
tp108
a(I1
g92
tp109
a(I2
g92
tp110
a(I0
g89
tp111
a(I1
g89
tp112
a(I2
g89
tp113
a(I0
g89
tp114
a(I1
g99
tp115
a(I2
g89
tp116
a(I0
g89
tp117
a(I1
g89
tp118
a(I2
g89
tp119
a(I0
g89
tp120
a(I1
g86
tp121
a(I2
g89
tp122
a(I0
g89
tp123
a(I1
g92
tp124
a(I2
g99
tp125
a(I0
g89
tp126
a(I1
g92
tp127
a(I2
g99
tp128
a(I0
g89
tp129
a(I1
g89
tp130
a(I2
g99
tp131
a(I0
g89
tp132
a(I1
g89
tp133
a(I2
g99
tp134
a(I0
g99
tp135
a(I1
g89
tp136
a(I2
g89
tp137
a(I0
g99
tp138
a(I1
g92
tp139
a(I2
g89
tp140
a(I0
g89
tp141
a(I1
g92
tp142
a(I2
g89
tp143
a(I0
g89
tp144
a(I1
g86
tp145
a(I2
g92
tp146
a(I0
g89
tp147
a(I1
g86
tp148
a(I2
g92
tp149
a(I0
g92
tp150
a(I1
g86
tp151
a(I2
g86
tp152
a(I0
g92
tp153
a(I1
g86
tp154
a(I2
g86
tp155
a(I0
g92
tp156
a(I1
g86
tp157
a(I2
g86
tp158
a(I0
g92
tp159
a(I1
g86
tp160
a(I2
g92
tp161
a(I0
g92
tp162
a(I1
g86
tp163
a(I2
g92
tp164
a(I0
g92
tp165
a(I1
g99
tp166
a(I2
g92
tp167
a(I0
g92
tp168
a(I1
g99
tp169
a(I2
g92
tp170
a(I0
g92
tp171
a(I1
g99
tp172
a(I2
g86
tp173
a(I0
g99
tp174
a(I1
g99
tp175
a(I2
g86
tp176
a(I0
g92
tp177
a(I1
g99
tp178
a(I2
g86
tp179
a(I0
g86
tp180
a(I1
g99
tp181
a(I2
g86
tp182
a(I0
g86
tp183
a(I1
g86
tp184
a(I2
g86
tp185
a(I0
g86
tp186
a(I1
g86
tp187
a(I2
g86
tp188
a(I0
g99
tp189
a(I1
g86
tp190
a(I2
g86
tp191
a(I0
g99
tp192
a(I1
g86
tp193
a(I2
g86
tp194
a(I0
g86
tp195
a(I1
g86
tp196
a(I2
g86
tp197
a(I0
g86
tp198
a(I1
g86
tp199
a(I2
g86
tp200
a(I0
g89
tp201
a(I1
g99
tp202
a(I2
g86
tp203
a(I0
g89
tp204
a(I1
g99
tp205
a(I2
g86
tp206
a(I0
g89
tp207
a(I1
g99
tp208
a(I2
g86
tp209
a(I0
g99
tp210
a(I1
g99
tp211
a(I2
g86
tp212
a(I0
g99
tp213
a(I1
g89
tp214
a(I2
g99
tp215
a(I0
g99
tp216
a(I1
g89
tp217
a(I2
g99
tp218
a(I0
g99
tp219
a(I1
g99
tp220
a(I2
g99
tp221
a(I0
g92
tp222
a(I1
g99
tp223
a(I2
g99
tp224
a(I0
g92
tp225
a(I1
g99
tp226
a(I2
g86
tp227
a(I0
g89
tp228
a(I1
g99
tp229
a(I2
g86
tp230
a(I0
g86
tp231
a(I1
g86
tp232
a(I2
g86
tp233
a(I0
g86
tp234
a(I1
g86
tp235
a(I2
g86
tp236
a(I0
g86
tp237
a(I1
g86
tp238
a(I2
g86
tp239
a(I0
g86
tp240
a(I1
g86
tp241
a(I2
g86
tp242
a(I0
g99
tp243
a(I1
g86
tp244
a(I2
g99
tp245
a(I0
g92
tp246
a(I1
g86
tp247
a(I2
g99
tp248
a(I0
g92
tp249
a(I1
g92
tp250
a(I2
g99
tp251
a(I0
g92
tp252
a(I1
g92
tp253
a(I2
g99
tp254
a(I0
g92
tp255
a(I1
g92
tp256
a(I2
g89
tp257
a(I0
g92
tp258
a(I1
g92
tp259
a(I2
g89
tp260
a(I0
g86
tp261
a(I1
g92
tp262
a(I2
g89
tp263
a(I0
g86
tp264
a(I1
g92
tp265
a(I2
g89
tp266
a(I0
g86
tp267
a(I1
g92
tp268
a(I2
g89
tp269
a(I0
g86
tp270
a(I1
g92
tp271
a(I2
g89
tp272
a(I0
g86
tp273
a(I1
g89
tp274
a(I2
g99
tp275
a(I0
g86
tp276
a(I1
g89
tp277
a(I2
g99
tp278
a(I0
g86
tp279
a(I1
g89
tp280
a(I2
g99
tp281
a(I0
g99
tp282
a(I1
g89
tp283
a(I2
g99
tp284
a(I0
g99
tp285
a(I1
g92
tp286
a(I2
g86
tp287
a(I0
g89
tp288
a(I1
g92
tp289
a(I2
g86
tp290
a(I0
g89
tp291
a(I1
g92
tp292
a(I2
g86
tp293
a(I0
g89
tp294
a(I1
g89
tp295
a(I2
g99
tp296
a(I0
g89
tp297
a(I1
g92
tp298
a(I2
g99
tp299
a(I0
g99
tp300
a(I1
g92
tp301
a(I2
g86
tp302
a(I0
g92
tp303
a(I1
g86
tp304
a(I2
g86
tp305
a(I0
g89
tp306
a(I1
g86
tp307
a(I2
g86
tp308
a(I0
g89
tp309
a(I1
g86
tp310
a(I2
g92
tp311
a(I0
g89
tp312
a(I1
g99
tp313
a(I2
g92
tp314
a(I0
g99
tp315
a(I1
g99
tp316
a(I2
g92
tp317
a(I0
g99
tp318
a(I1
g99
tp319
a(I2
g92
tp320
a(I0
g99
tp321
a(I1
g99
tp322
a(I2
g89
tp323
a(I0
g99
tp324
a(I1
g89
tp325
a(I2
g89
tp326
a(I0
g99
tp327
a(I1
g89
tp328
a(I2
g99
tp329
a(I0
g99
tp330
a(I1
g92
tp331
a(I2
g99
tp332
a(I0
g86
tp333
a(I1
g92
tp334
a(I2
g89
tp335
a(I0
g86
tp336
a(I1
g89
tp337
a(I2
g89
tp338
a(I0
g86
tp339
a(I1
g92
tp340
a(I2
g89
tp341
a(I0
g86
tp342
a(I1
g92
tp343
a(I2
g99
tp344
a(I0
g86
tp345
a(I1
g86
tp346
a(I2
g99
tp347
a(I0
S'Stop'
p348
tp349
a(I1
g86
tp350
a(I2
g89
tp351
a(I0
g89
tp352
a(I1
g86
tp353
a(I2
g89
tp354
a(I0
g89
tp355
a(I1
g99
tp356
a(I2
g89
tp357
a(I0
g89
tp358
a(I1
g99
tp359
a(I2
g89
tp360
a(I0
g89
tp361
a(I1
g99
tp362
a(I2
g89
tp363
a(I0
g89
tp364
a(I1
g99
tp365
a(I2
g89
tp366
a(I0
g92
tp367
a(I1
g99
tp368
a(I2
g89
tp369
a(I0
g92
tp370
a(I1
g99
tp371
a(I2
g92
tp372
a(I0
g86
tp373
a(I1
g99
tp374
a(I2
g92
tp375
a(I0
g86
tp376
a(I1
g99
tp377
a(I2
g89
tp378
a(I0
g86
tp379
a(I1
g89
tp380
a(I2
g89
tp381
a(I0
g86
tp382
a(I1
g89
tp383
a(I2
g99
tp384
a(I0
g86
tp385
a(I1
g89
tp386
a(I2
g99
tp387
a(I0
g86
tp388
a(I1
g92
tp389
a(I2
g89
tp390
a(I0
g86
tp391
a(I1
g92
tp392
a(I2
g89
tp393
a(I0
g92
tp394
a(I1
g86
tp395
a(I2
g89
tp396
a(I0
g92
tp397
a(I1
g92
tp398
a(I2
g92
tp399
a(I0
g92
tp400
a(I1
g92
tp401
a(I2
g92
tp402
a(I0
g92
tp403
a(I1
g86
tp404
a(I2
g92
tp405
a(I0
g86
tp406
a(I1
g86
tp407
a(I2
g92
tp408
a(I0
g86
tp409
a(I1
g99
tp410
a(I2
g92
tp411
a(I0
g92
tp412
a(I1
g99
tp413
a(I2
g92
tp414
a(I0
g92
tp415
a(I1
g99
tp416
a(I2
g92
tp417
a(I0
g86
tp418
a(I1
g99
tp419
a(I2
g92
tp420
a(I0
g86
tp421
a(I1
g89
tp422
a(I2
g86
tp423
a(I0
g86
tp424
a(I1
g89
tp425
a(I2
g86
tp426
a(I0
g99
tp427
a(I1
g89
tp428
a(I2
g86
tp429
a(I0
g99
tp430
a(I1
g92
tp431
a(I2
g99
tp432
a(I0
g99
tp433
a(I1
g92
tp434
a(I2
g99
tp435
a(I0
g99
tp436
a(I1
g89
tp437
a(I2
g86
tp438
a(I0
g99
tp439
a(I1
g89
tp440
a(I2
g86
tp441
a(I0
g92
tp442
a(I1
g92
tp443
a(I2
g86
tp444
a(I0
g89
tp445
a(I1
g92
tp446
a(I2
g86
tp447
a(I0
g89
tp448
a(I1
g92
tp449
a(I2
g86
tp450
a(I0
g99
tp451
a(I1
g92
tp452
a(I2
g86
tp453
a(I0
g99
tp454
a(I1
g92
tp455
a(I2
g86
tp456
a(I0
g89
tp457
a(I1
g92
tp458
a(I2
g86
tp459
a(I0
g99
tp460
a(I1
g89
tp461
a(I2
g86
tp462
a(I0
g99
tp463
a(I1
g89
tp464
a(I2
g92
tp465
a(I0
g86
tp466
a(I1
g89
tp467
a(I2
g92
tp468
a(I0
g86
tp469
a(I1
g89
tp470
a(I2
g89
tp471
a(I0
g86
tp472
a(I1
g89
tp473
a(I2
g89
tp474
a(I0
g92
tp475
a(I1
g89
tp476
a(I2
g89
tp477
a(I0
g92
tp478
a(I1
g89
tp479
a(I2
g89
tp480
a(I0
g92
tp481
a(I1
g89
tp482
a(I2
g89
tp483
a(I0
g92
tp484
a(I1
g89
tp485
a(I2
g89
tp486
a(I0
g89
tp487
a(I1
g89
tp488
a(I2
g89
tp489
a(I0
g89
tp490
a(I1
g99
tp491
a(I2
g89
tp492
a(I0
g89
tp493
a(I1
g99
tp494
a(I2
g89
tp495
a(I0
g89
tp496
a(I1
g99
tp497
a(I2
g89
tp498
a(I0
g86
tp499
a(I1
g99
tp500
a(I2
g89
tp501
a(I0
g86
tp502
a(I1
g99
tp503
a(I2
g89
tp504
a(I0
g92
tp505
a(I1
g99
tp506
a(I2
g89
tp507
a(I0
g92
tp508
a(I1
g99
tp509
a(I2
g99
tp510
a(I0
g99
tp511
a(I1
g99
tp512
a(I2
g99
tp513
a(I0
g99
tp514
a(I1
g89
tp515
a(I2
g99
tp516
a(I0
g99
tp517
a(I1
g89
tp518
a(I2
g99
tp519
a(I0
g99
tp520
a(I1
g89
tp521
a(I2
g99
tp522
a(I0
g89
tp523
a(I1
g89
tp524
a(I2
g99
tp525
a(I0
g89
tp526
as.