(dp1
S'layout'
p2
(ilayout
Layout
p3
(dp4
S'capsules'
p5
(lp6
(I18
I1
tp7
a(I1
I9
tp8
asS'numGhosts'
p9
I2
sS'food'
p10
(igame
Grid
p11
(dp12
S'CELLS_PER_INT'
p13
I30
sS'width'
p14
I20
sS'data'
p15
(lp16
(lp17
I00
aI00
aI00
aI00
aI00
aI00
aI00
aI00
aI00
aI00
aI00
aa(lp18
I00
aI01
aI01
aI01
aI01
aI01
aI01
aI01
aI01
aI00
aI00
aa(lp19
I00
aI01
aI00
aI00
aI00
aI01
aI00
aI00
aI00
aI01
aI00
aa(lp20
I00
aI01
aI00
aI01
aI01
aI01
aI01
aI01
aI00
aI01
aI00
aa(lp21
I00
aI01
aI01
aI01
aI00
aI01
aI00
aI01
aI01
aI01
aI00
aa(lp22
I00
aI00
aI00
aI01
aI00
aI01
aI00
aI01
aI00
aI00
aI00
aa(lp23
I00
aI01
aI01
aI01
aI01
aI01
aI01
aI01
aI01
aI01
aI00
aa(lp24
I00
aI01
aI00
aI01
aI00
aI00
aI00
aI01
aI00
aI01
aI00
aa(lp25
I00
aI01
aI00
aI01
aI00
aI00
aI00
aI01
aI00
aI01
aI00
aa(lp26
I00
aI00
aI00
aI01
aI00
aI00
aI00
aI01
aI00
aI01
aI00
aa(lp27
I00
aI01
aI00
aI01
aI00
aI00
aI00
aI01
aI00
aI01
aI00
aa(lp28
I00
aI01
aI00
aI01
aI00
aI00
aI00
aI01
aI00
aI01
aI00
aa(lp29
I00
aI01
aI00
aI01
aI00
aI00
aI00
aI01
aI00
aI01
aI00
aa(lp30
I00
aI01
aI01
aI01
aI01
aI01
aI01
aI01
aI01
aI01
aI00
aa(lp31
I00
aI00
aI00
aI01
aI00
aI01
aI00
aI01
aI00
aI00
aI00
aa(lp32
I00
aI01
aI01
aI01
aI00
aI01
aI00
aI01
aI01
aI01
aI00
aa(lp33
I00
aI01
aI00
aI01
aI01
aI01
aI01
aI01
aI00
aI01
aI00
aa(lp34
I00
aI01
aI00
aI00
aI00
aI01
aI00
aI00
aI00
aI01
aI00
aa(lp35
I00
aI00
aI01
aI01
aI01
aI01
aI01
aI01
aI01
aI01
aI00
aa(lp36
I00
aI00
aI00
aI00
aI00
aI00
aI00
aI00
aI00
aI00
aI00
aasS'height'
p37
I11
sbsS'agentPositions'
p38
(lp39
(I01
(I9
I1
tp40
tp41
a(I00
(I8
I5
tp42
tp43
a(I00
(I11
I5
tp44
tp45
asg37
I11
sg14
I20
sS'walls'
p46
(igame
Grid
p47
(dp48
g13
I30
sg14
I20
sg15
(lp49
(lp50
I01
aI01
aI01
aI01
aI01
aI01
aI01
aI01
aI01
aI01
aI01
aa(lp51
I01
aI00
aI00
aI00
aI00
aI00
aI00
aI00
aI00
aI00
aI01
aa(lp52
I01
aI00
aI01
aI01
aI01
aI00
aI01
aI01
aI01
aI00
aI01
aa(lp53
I01
aI00
aI01
aI00
aI00
aI00
aI00
aI00
aI01
aI00
aI01
aa(lp54
I01
aI00
aI00
aI00
aI01
aI00
aI01
aI00
aI00
aI00
aI01
aa(lp55
I01
aI01
aI01
aI00
aI01
aI00
aI01
aI00
aI01
aI01
aI01
aa(lp56
I01
aI00
aI00
aI00
aI00
aI00
aI00
aI00
aI00
aI00
aI01
aa(lp57
I01
aI00
aI01
aI00
aI01
aI01
aI01
aI00
aI01
aI00
aI01
aa(lp58
I01
aI00
aI01
aI00
aI01
aI00
aI01
aI00
aI01
aI00
aI01
aa(lp59
I01
aI00
aI01
aI00
aI01
aI00
aI00
aI00
aI01
aI00
aI01
aa(lp60
I01
aI00
aI01
aI00
aI01
aI00
aI00
aI00
aI01
aI00
aI01
aa(lp61
I01
aI00
aI01
aI00
aI01
aI00
aI01
aI00
aI01
aI00
aI01
aa(lp62
I01
aI00
aI01
aI00
aI01
aI01
aI01
aI00
aI01
aI00
aI01
aa(lp63
I01
aI00
aI00
aI00
aI00
aI00
aI00
aI00
aI00
aI00
aI01
aa(lp64
I01
aI01
aI01
aI00
aI01
aI00
aI01
aI00
aI01
aI01
aI01
aa(lp65
I01
aI00
aI00
aI00
aI01
aI00
aI01
aI00
aI00
aI00
aI01
aa(lp66
I01
aI00
aI01
aI00
aI00
aI00
aI00
aI00
aI01
aI00
aI01
aa(lp67
I01
aI00
aI01
aI01
aI01
aI00
aI01
aI01
aI01
aI00
aI01
aa(lp68
I01
aI00
aI00
aI00
aI00
aI00
aI00
aI00
aI00
aI00
aI01
aa(lp69
I01
aI01
aI01
aI01
aI01
aI01
aI01
aI01
aI01
aI01
aI01
aasg37
I11
sbsS'totalFood'
p70
I97
sS'layoutText'
p71
(lp72
S'%%%%%%%%%%%%%%%%%%%%'
p73
aS'%o...%........%....%'
p74
aS'%.%%.%.%%%%%%.%.%%.%'
p75
aS'%.%..............%.%'
p76
aS'%.%.%%.%%  %%.%%.%.%'
p77
aS'%......%G  G%......%'
p78
aS'%.%.%%.%%%%%%.%%.%.%'
p79
aS'%.%..............%.%'
p80
aS'%.%%.%.%%%%%%.%.%%.%'
p81
aS'%....%...P....%...o%'
p82
aS'%%%%%%%%%%%%%%%%%%%%'
p83
asbsS'actions'
p84
(lp85
(I0
S'West'
p86
tp87
a(I1
S'East'
p88
tp89
a(I2
g86
tp90
a(I0
g86
tp91
a(I1
S'North'
p92
tp93
a(I2
g92
tp94
a(I0
g86
tp95
a(I1
g92
tp96
a(I2
g86
tp97
a(I0
g92
tp98
a(I1
g88
tp99
a(I2
g92
tp100
a(I0
g92
tp101
a(I1
g88
tp102
a(I2
g86
tp103
a(I0
g92
tp104
a(I1
g88
tp105
a(I2
g86
tp106
a(I0
g92
tp107
a(I1
g88
tp108
a(I2
g86
tp109
a(I0
g86
tp110
a(I1
g88
tp111
a(I2
g92
tp112
a(I0
g86
tp113
a(I1
g88
tp114
a(I2
g92
tp115
a(I0
g86
tp116
a(I1
g88
tp117
a(I2
g88
tp118
a(I0
g86
tp119
a(I1
S'South'
p120
tp121
a(I2
g88
tp122
a(I0
g86
tp123
a(I1
g120
tp124
a(I2
g88
tp125
a(I0
g120
tp126
a(I1
g86
tp127
a(I2
g88
tp128
a(I0
g120
tp129
a(I1
g86
tp130
a(I2
g88
tp131
a(I0
g120
tp132
a(I1
g86
tp133
a(I2
g88
tp134
a(I0
g120
tp135
a(I1
g120
tp136
a(I2
g88
tp137
a(I0
g88
tp138
a(I1
g120
tp139
a(I2
g120
tp140
a(I0
g88
tp141
a(I1
g120
tp142
a(I2
g120
tp143
a(I0
g88
tp144
a(I1
g120
tp145
a(I2
g88
tp146
a(I0
g92
tp147
a(I1
g86
tp148
a(I2
g88
tp149
a(I0
g92
tp150
a(I1
g86
tp151
a(I2
g88
tp152
a(I0
g86
tp153
a(I1
g86
tp154
a(I2
g120
tp155
a(I0
g92
tp156
a(I1
g86
tp157
a(I2
g120
tp158
a(I0
g92
tp159
a(I1
g86
tp160
a(I2
g88
tp161
a(I0
g92
tp162
a(I1
g86
tp163
a(I2
g88
tp164
a(I0
g92
tp165
a(I1
g86
tp166
a(I2
g92
tp167
a(I0
g88
tp168
a(I1
g92
tp169
a(I2
g92
tp170
a(I0
g92
tp171
a(I1
g92
tp172
a(I2
g92
tp173
a(I0
g92
tp174
a(I1
g92
tp175
a(I2
g92
tp176
a(I0
g86
tp177
a(I1
g92
tp178
a(I2
g86
tp179
a(I0
g86
tp180
a(I1
g92
tp181
a(I2
g86
tp182
a(I0
g86
tp183
a(I1
g92
tp184
a(I2
g86
tp185
a(I0
S'Stop'
p186
tp187
a(I1
g92
tp188
a(I2
g86
tp189
a(I0
g120
tp190
a(I1
g86
tp191
a(I2
g120
tp192
a(I0
g120
tp193
a(I1
g86
tp194
a(I2
g120
tp195
a(I0
g120
tp196
a(I1
g86
tp197
a(I2
g120
tp198
a(I0
g120
tp199
a(I1
g86
tp200
a(I2
g120
tp201
a(I0
g88
tp202
a(I1
g86
tp203
a(I2
g88
tp204
a(I0
g86
tp205
a(I1
g86
tp206
a(I2
g88
tp207
a(I0
g88
tp208
a(I1
g120
tp209
a(I2
g120
tp210
a(I0
g88
tp211
a(I1
g120
tp212
a(I2
g120
tp213
a(I0
g120
tp214
a(I1
g120
tp215
a(I2
g120
tp216
a(I0
g120
tp217
a(I1
g120
tp218
a(I2
g120
tp219
a(I0
g88
tp220
a(I1
g86
tp221
a(I2
g88
tp222
a(I0
g88
tp223
a(I1
g86
tp224
a(I2
g88
tp225
a(I0
g88
tp226
a(I1
g86
tp227
a(I2
g88
tp228
a(I0
g88
tp229
a(I1
g86
tp230
a(I2
g88
tp231
a(I0
g88
tp232
a(I1
g120
tp233
a(I2
g92
tp234
a(I0
g88
tp235
a(I1
g120
tp236
a(I2
g92
tp237
a(I0
g88
tp238
a(I1
g120
tp239
a(I2
g92
tp240
a(I0
g88
tp241
a(I1
g120
tp242
a(I2
g92
tp243
a(I0
g88
tp244
a(I1
g120
tp245
a(I2
g92
tp246
a(I0
g88
tp247
a(I1
g120
tp248
a(I2
g92
tp249
a(I0
g88
tp250
a(I1
g120
tp251
a(I2
g92
tp252
a(I0
g88
tp253
a(I1
g120
tp254
a(I2
g92
tp255
a(I0
g120
tp256
a(I1
g88
tp257
a(I2
g86
tp258
a(I0
g120
tp259
a(I1
g88
tp260
a(I2
g86
tp261
a(I0
g88
tp262
a(I1
g88
tp263
a(I2
g86
tp264
a(I0
g86
tp265
a(I1
g88
tp266
a(I2
g86
tp267
a(I0
g88
tp268
a(I1
g88
tp269
a(I2
g86
tp270
a(I0
g88
tp271
a(I1
g88
tp272
a(I2
g86
tp273
a(I0
g186
tp274
a(I1
g92
tp275
a(I2
g120
tp276
a(I0
g88
tp277
a(I1
g92
tp278
a(I2
g120
tp279
a(I0
g92
tp280
a(I1
g92
tp281
a(I2
g120
tp282
a(I0
g92
tp283
a(I1
g92
tp284
a(I2
g120
tp285
a(I0
g92
tp286
a(I1
g88
tp287
a(I2
g86
tp288
a(I0
g92
tp289
a(I1
g88
tp290
a(I2
g86
tp291
a(I0
g92
tp292
a(I1
g88
tp293
a(I2
g86
tp294
a(I0
g92
tp295
a(I1
g88
tp296
a(I2
g86
tp297
a(I0
g92
tp298
a(I1
g88
tp299
a(I2
g120
tp300
a(I0
g92
tp301
a(I1
g88
tp302
a(I2
g120
tp303
a(I0
g86
tp304
a(I1
g88
tp305
a(I2
g120
tp306
a(I0
g86
tp307
a(I1
g88
tp308
a(I2
g120
tp309
a(I0
g86
tp310
a(I1
g88
tp311
a(I2
g88
tp312
a(I0
g120
tp313
a(I1
g88
tp314
a(I2
g88
tp315
a(I0
g120
tp316
a(I1
g88
tp317
a(I2
g88
tp318
a(I0
g86
tp319
a(I1
g88
tp320
a(I2
g88
tp321
a(I0
g86
tp322
a(I1
g88
tp323
a(I2
g88
tp324
a(I0
g120
tp325
a(I1
g88
tp326
a(I2
g88
tp327
a(I0
g120
tp328
a(I1
g88
tp329
a(I2
g120
tp330
a(I0
g92
tp331
a(I1
g88
tp332
a(I2
g120
tp333
a(I0
g92
tp334
a(I1
g88
tp335
a(I2
g120
tp336
a(I0
g86
tp337
a(I1
g88
tp338
a(I2
g120
tp339
a(I0
g86
tp340
a(I1
g120
tp341
a(I2
g86
tp342
a(I0
g86
tp343
a(I1
g120
tp344
a(I2
g86
tp345
a(I0
g86
tp346
a(I1
g120
tp347
a(I2
g86
tp348
a(I0
g86
tp349
a(I1
g120
tp350
a(I2
g86
tp351
a(I0
g86
tp352
a(I1
g86
tp353
a(I2
g86
tp354
a(I0
g86
tp355
a(I1
g86
tp356
a(I2
g86
tp357
a(I0
g120
tp358
a(I1
g86
tp359
a(I2
g86
tp360
a(I0
g92
tp361
a(I1
g86
tp362
a(I2
g86
tp363
a(I0
g86
tp364
a(I1
g86
tp365
a(I2
g86
tp366
a(I0
g88
tp367
a(I1
g86
tp368
a(I2
g86
tp369
a(I0
g92
tp370
a(I1
g86
tp371
a(I2
g86
tp372
a(I0
g92
tp373
a(I1
g86
tp374
a(I2
g86
tp375
a(I0
g88
tp376
a(I1
g86
tp377
a(I2
g86
tp378
a(I0
g88
tp379
a(I1
g86
tp380
a(I2
g86
tp381
a(I0
g88
tp382
a(I1
g86
tp383
a(I2
g86
tp384
a(I0
g86
tp385
a(I1
g86
tp386
a(I2
g86
tp387
a(I0
g88
tp388
a(I1
g86
tp389
a(I2
g86
tp390
a(I0
g88
tp391
a(I1
g86
tp392
a(I2
g86
tp393
a(I0
g86
tp394
a(I1
g92
tp395
a(I2
g86
tp396
a(I0
g88
tp397
a(I1
g92
tp398
a(I2
g86
tp399
a(I0
g88
tp400
a(I1
g86
tp401
a(I2
g86
tp402
a(I0
g88
tp403
a(I1
g86
tp404
a(I2
g86
tp405
a(I0
g88
tp406
a(I1
g120
tp407
a(I2
g86
tp408
a(I0
g120
tp409
a(I1
g120
tp410
a(I2
g92
tp411
a(I0
g120
tp412
a(I1
g86
tp413
a(I2
g92
tp414
a(I0
g120
tp415
a(I1
g86
tp416
a(I2
g86
tp417
a(I0
g120
tp418
a(I1
g86
tp419
a(I2
g86
tp420
a(I0
g88
tp421
a(I1
g92
tp422
a(I2
g92
tp423
a(I0
g88
tp424
a(I1
g92
tp425
a(I2
g92
tp426
a(I0
g88
tp427
a(I1
g92
tp428
a(I2
g92
tp429
a(I0
g120
tp430
a(I1
g92
tp431
a(I2
g92
tp432
a(I0
g120
tp433
a(I1
g88
tp434
a(I2
g88
tp435
a(I0
g92
tp436
a(I1
g88
tp437
a(I2
g88
tp438
a(I0
g92
tp439
a(I1
g120
tp440
a(I2
g88
tp441
a(I0
g88
tp442
a(I1
g120
tp443
a(I2
g120
tp444
a(I0
g86
tp445
a(I1
g88
tp446
a(I2
g120
tp447
a(I0
g92
tp448
a(I1
g88
tp449
a(I2
g88
tp450
a(I0
g92
tp451
a(I1
g88
tp452
a(I2
g88
tp453
a(I0
g86
tp454
a(I1
g120
tp455
a(I2
g120
tp456
a(I0
g86
tp457
a(I1
g120
tp458
a(I2
g120
tp459
a(I0
g86
tp460
a(I1
g88
tp461
a(I2
g120
tp462
a(I0
g120
tp463
a(I1
g88
tp464
a(I2
g120
tp465
a(I0
g120
tp466
a(I1
g88
tp467
a(I2
g120
tp468
a(I0
g120
tp469
a(I1
g88
tp470
a(I2
g120
tp471
a(I0
g120
tp472
a(I1
g88
tp473
a(I2
g88
tp474
a(I0
g120
tp475
a(I1
g88
tp476
a(I2
g88
tp477
a(I0
g186
tp478
a(I1
g88
tp479
a(I2
g88
tp480
a(I0
g92
tp481
a(I1
g92
tp482
a(I2
g88
tp483
a(I0
g92
tp484
a(I1
g92
tp485
a(I2
g88
tp486
a(I0
g92
tp487
a(I1
g86
tp488
a(I2
g88
tp489
a(I0
g120
tp490
a(I1
g86
tp491
a(I2
g88
tp492
a(I0
g120
tp493
a(I1
g86
tp494
a(I2
g92
tp495
a(I0
g86
tp496
a(I1
g86
tp497
a(I2
g92
tp498
a(I0
g86
tp499
a(I1
g86
tp500
a(I2
g86
tp501
a(I0
g86
tp502
a(I1
g86
tp503
a(I2
g86
tp504
a(I0
g86
tp505
a(I1
g86
tp506
a(I2
g86
tp507
a(I0
g86
tp508
a(I1
g86
tp509
a(I2
g86
tp510
a(I0
g86
tp511
a(I1
g86
tp512
a(I2
g86
tp513
a(I0
g86
tp514
a(I1
g86
tp515
a(I2
g86
tp516
a(I0
g120
tp517
a(I1
g92
tp518
a(I2
g86
tp519
a(I0
g120
tp520
a(I1
g92
tp521
a(I2
g92
tp522
a(I0
g88
tp523
a(I1
g86
tp524
a(I2
g92
tp525
a(I0
g88
tp526
a(I1
g86
tp527
a(I2
g86
tp528
a(I0
g88
tp529
a(I1
g92
tp530
a(I2
g86
tp531
a(I0
g88
tp532
a(I1
g92
tp533
a(I2
g86
tp534
a(I0
g88
tp535
a(I1
g92
tp536
a(I2
g86
tp537
a(I0
g88
tp538
a(I1
g92
tp539
a(I2
g86
tp540
a(I0
g88
tp541
as.