(dp1
S'layout'
p2
(ilayout
Layout
p3
(dp4
S'capsules'
p5
(lp6
(I18
I1
tp7
a(I1
I9
tp8
asS'numGhosts'
p9
I2
sS'food'
p10
(igame
Grid
p11
(dp12
S'CELLS_PER_INT'
p13
I30
sS'width'
p14
I20
sS'data'
p15
(lp16
(lp17
I00
aI00
aI00
aI00
aI00
aI00
aI00
aI00
aI00
aI00
aI00
aa(lp18
I00
aI01
aI01
aI01
aI01
aI01
aI01
aI01
aI01
aI00
aI00
aa(lp19
I00
aI01
aI00
aI00
aI00
aI01
aI00
aI00
aI00
aI01
aI00
aa(lp20
I00
aI01
aI00
aI01
aI01
aI01
aI01
aI01
aI00
aI01
aI00
aa(lp21
I00
aI01
aI01
aI01
aI00
aI01
aI00
aI01
aI01
aI01
aI00
aa(lp22
I00
aI00
aI00
aI01
aI00
aI01
aI00
aI01
aI00
aI00
aI00
aa(lp23
I00
aI01
aI01
aI01
aI01
aI01
aI01
aI01
aI01
aI01
aI00
aa(lp24
I00
aI01
aI00
aI01
aI00
aI00
aI00
aI01
aI00
aI01
aI00
aa(lp25
I00
aI01
aI00
aI01
aI00
aI00
aI00
aI01
aI00
aI01
aI00
aa(lp26
I00
aI00
aI00
aI01
aI00
aI00
aI00
aI01
aI00
aI01
aI00
aa(lp27
I00
aI01
aI00
aI01
aI00
aI00
aI00
aI01
aI00
aI01
aI00
aa(lp28
I00
aI01
aI00
aI01
aI00
aI00
aI00
aI01
aI00
aI01
aI00
aa(lp29
I00
aI01
aI00
aI01
aI00
aI00
aI00
aI01
aI00
aI01
aI00
aa(lp30
I00
aI01
aI01
aI01
aI01
aI01
aI01
aI01
aI01
aI01
aI00
aa(lp31
I00
aI00
aI00
aI01
aI00
aI01
aI00
aI01
aI00
aI00
aI00
aa(lp32
I00
aI01
aI01
aI01
aI00
aI01
aI00
aI01
aI01
aI01
aI00
aa(lp33
I00
aI01
aI00
aI01
aI01
aI01
aI01
aI01
aI00
aI01
aI00
aa(lp34
I00
aI01
aI00
aI00
aI00
aI01
aI00
aI00
aI00
aI01
aI00
aa(lp35
I00
aI00
aI01
aI01
aI01
aI01
aI01
aI01
aI01
aI01
aI00
aa(lp36
I00
aI00
aI00
aI00
aI00
aI00
aI00
aI00
aI00
aI00
aI00
aasS'height'
p37
I11
sbsS'agentPositions'
p38
(lp39
(I01
(I9
I1
tp40
tp41
a(I00
(I8
I5
tp42
tp43
a(I00
(I11
I5
tp44
tp45
asg37
I11
sg14
I20
sS'walls'
p46
(igame
Grid
p47
(dp48
g13
I30
sg14
I20
sg15
(lp49
(lp50
I01
aI01
aI01
aI01
aI01
aI01
aI01
aI01
aI01
aI01
aI01
aa(lp51
I01
aI00
aI00
aI00
aI00
aI00
aI00
aI00
aI00
aI00
aI01
aa(lp52
I01
aI00
aI01
aI01
aI01
aI00
aI01
aI01
aI01
aI00
aI01
aa(lp53
I01
aI00
aI01
aI00
aI00
aI00
aI00
aI00
aI01
aI00
aI01
aa(lp54
I01
aI00
aI00
aI00
aI01
aI00
aI01
aI00
aI00
aI00
aI01
aa(lp55
I01
aI01
aI01
aI00
aI01
aI00
aI01
aI00
aI01
aI01
aI01
aa(lp56
I01
aI00
aI00
aI00
aI00
aI00
aI00
aI00
aI00
aI00
aI01
aa(lp57
I01
aI00
aI01
aI00
aI01
aI01
aI01
aI00
aI01
aI00
aI01
aa(lp58
I01
aI00
aI01
aI00
aI01
aI00
aI01
aI00
aI01
aI00
aI01
aa(lp59
I01
aI00
aI01
aI00
aI01
aI00
aI00
aI00
aI01
aI00
aI01
aa(lp60
I01
aI00
aI01
aI00
aI01
aI00
aI00
aI00
aI01
aI00
aI01
aa(lp61
I01
aI00
aI01
aI00
aI01
aI00
aI01
aI00
aI01
aI00
aI01
aa(lp62
I01
aI00
aI01
aI00
aI01
aI01
aI01
aI00
aI01
aI00
aI01
aa(lp63
I01
aI00
aI00
aI00
aI00
aI00
aI00
aI00
aI00
aI00
aI01
aa(lp64
I01
aI01
aI01
aI00
aI01
aI00
aI01
aI00
aI01
aI01
aI01
aa(lp65
I01
aI00
aI00
aI00
aI01
aI00
aI01
aI00
aI00
aI00
aI01
aa(lp66
I01
aI00
aI01
aI00
aI00
aI00
aI00
aI00
aI01
aI00
aI01
aa(lp67
I01
aI00
aI01
aI01
aI01
aI00
aI01
aI01
aI01
aI00
aI01
aa(lp68
I01
aI00
aI00
aI00
aI00
aI00
aI00
aI00
aI00
aI00
aI01
aa(lp69
I01
aI01
aI01
aI01
aI01
aI01
aI01
aI01
aI01
aI01
aI01
aasg37
I11
sbsS'totalFood'
p70
I97
sS'layoutText'
p71
(lp72
S'%%%%%%%%%%%%%%%%%%%%'
p73
aS'%o...%........%....%'
p74
aS'%.%%.%.%%%%%%.%.%%.%'
p75
aS'%.%..............%.%'
p76
aS'%.%.%%.%%  %%.%%.%.%'
p77
aS'%......%G  G%......%'
p78
aS'%.%.%%.%%%%%%.%%.%.%'
p79
aS'%.%..............%.%'
p80
aS'%.%%.%.%%%%%%.%.%%.%'
p81
aS'%....%...P....%...o%'
p82
aS'%%%%%%%%%%%%%%%%%%%%'
p83
asbsS'actions'
p84
(lp85
(I0
S'East'
p86
tp87
a(I1
g86
tp88
a(I2
S'West'
p89
tp90
a(I0
g86
tp91
a(I1
g86
tp92
a(I2
g89
tp93
a(I0
g86
tp94
a(I1
S'North'
p95
tp96
a(I2
g89
tp97
a(I0
g86
tp98
a(I1
g89
tp99
a(I2
g86
tp100
a(I0
g95
tp101
a(I1
g95
tp102
a(I2
g86
tp103
a(I0
g95
tp104
a(I1
g89
tp105
a(I2
g95
tp106
a(I0
g86
tp107
a(I1
g89
tp108
a(I2
g95
tp109
a(I0
g86
tp110
a(I1
g89
tp111
a(I2
g89
tp112
a(I0
g86
tp113
a(I1
g89
tp114
a(I2
S'South'
p115
tp116
a(I0
g95
tp117
a(I1
g89
tp118
a(I2
g115
tp119
a(I0
g95
tp120
a(I1
g89
tp121
a(I2
g89
tp122
a(I0
g95
tp123
a(I1
g115
tp124
a(I2
g86
tp125
a(I0
g95
tp126
a(I1
g115
tp127
a(I2
g95
tp128
a(I0
g89
tp129
a(I1
g86
tp130
a(I2
g95
tp131
a(I0
g95
tp132
a(I1
g86
tp133
a(I2
g86
tp134
a(I0
g95
tp135
a(I1
g86
tp136
a(I2
g115
tp137
a(I0
g86
tp138
a(I1
g115
tp139
a(I2
g89
tp140
a(I0
g86
tp141
a(I1
g115
tp142
a(I2
g95
tp143
a(I0
g86
tp144
a(I1
g89
tp145
a(I2
g86
tp146
a(I0
g115
tp147
a(I1
g89
tp148
a(I2
g115
tp149
a(I0
g115
tp150
a(I1
g89
tp151
a(I2
g115
tp152
a(I0
g115
tp153
a(I1
g95
tp154
a(I2
g89
tp155
a(I0
g115
tp156
a(I1
g95
tp157
a(I2
g89
tp158
a(I0
g89
tp159
a(I1
g89
tp160
a(I2
g86
tp161
a(I0
g86
tp162
a(I1
g89
tp163
a(I2
g95
tp164
a(I0
g115
tp165
a(I1
g95
tp166
a(I2
g95
tp167
a(I0
g115
tp168
a(I1
g95
tp169
a(I2
g86
tp170
a(I0
g115
tp171
a(I1
g95
tp172
a(I2
g115
tp173
a(I0
g115
tp174
a(I1
g95
tp175
a(I2
g115
tp176
a(I0
g89
tp177
a(I1
g95
tp178
a(I2
g115
tp179
a(I0
g89
tp180
a(I1
g86
tp181
a(I2
g86
tp182
a(I0
g89
tp183
a(I1
g86
tp184
a(I2
g86
tp185
a(I0
g95
tp186
a(I1
g86
tp187
a(I2
g89
tp188
a(I0
g95
tp189
a(I1
g86
tp190
a(I2
g89
tp191
a(I0
g89
tp192
a(I1
g86
tp193
a(I2
g95
tp194
a(I0
g89
tp195
a(I1
g86
tp196
a(I2
g95
tp197
a(I0
g95
tp198
a(I1
g115
tp199
a(I2
g89
tp200
a(I0
g95
tp201
a(I1
g115
tp202
a(I2
g89
tp203
a(I0
g95
tp204
a(I1
g115
tp205
a(I2
g95
tp206
a(I0
g95
tp207
a(I1
g115
tp208
a(I2
g95
tp209
a(I0
g86
tp210
a(I1
g89
tp211
a(I2
g86
tp212
a(I0
g89
tp213
a(I1
g89
tp214
a(I2
g86
tp215
a(I0
g95
tp216
a(I1
g115
tp217
a(I2
g86
tp218
a(I0
g95
tp219
a(I1
g115
tp220
a(I2
g86
tp221
a(I0
g89
tp222
a(I1
g115
tp223
a(I2
g86
tp224
a(I0
g89
tp225
a(I1
g115
tp226
a(I2
g86
tp227
a(I0
g89
tp228
a(I1
g115
tp229
a(I2
g86
tp230
a(I0
g89
tp231
a(I1
g115
tp232
a(I2
g86
tp233
a(I0
g89
tp234
a(I1
g115
tp235
a(I2
g86
tp236
a(I0
g89
tp237
a(I1
g115
tp238
a(I2
g86
tp239
a(I0
g89
tp240
a(I1
g86
tp241
a(I2
g86
tp242
a(I0
g115
tp243
a(I1
g86
tp244
a(I2
g86
tp245
a(I0
g115
tp246
a(I1
g86
tp247
a(I2
g95
tp248
a(I0
g89
tp249
a(I1
g86
tp250
a(I2
g95
tp251
a(I0
g89
tp252
a(I1
g86
tp253
a(I2
g95
tp254
a(I0
g89
tp255
a(I1
g86
tp256
a(I2
g95
tp257
a(I0
g115
tp258
a(I1
g115
tp259
a(I2
g86
tp260
a(I0
g115
tp261
a(I1
g115
tp262
a(I2
g86
tp263
a(I0
g115
tp264
a(I1
g115
tp265
a(I2
g86
tp266
a(I0
g115
tp267
a(I1
g115
tp268
a(I2
g86
tp269
a(I0
g95
tp270
a(I1
g86
tp271
a(I2
g86
tp272
a(I0
g115
tp273
a(I1
g86
tp274
a(I2
g86
tp275
a(I0
g86
tp276
a(I1
g86
tp277
a(I2
g115
tp278
a(I0
g86
tp279
a(I1
g86
tp280
a(I2
g115
tp281
a(I0
g86
tp282
a(I1
g86
tp283
a(I2
g115
tp284
a(I0
g115
tp285
a(I1
g86
tp286
a(I2
g115
tp287
a(I0
g115
tp288
a(I1
g86
tp289
a(I2
g115
tp290
a(I0
g86
tp291
a(I1
g86
tp292
a(I2
g115
tp293
a(I0
g86
tp294
a(I1
g86
tp295
a(I2
g115
tp296
a(I0
g89
tp297
a(I1
g86
tp298
a(I2
g115
tp299
a(I0
g89
tp300
a(I1
g86
tp301
a(I2
g115
tp302
a(I0
g95
tp303
a(I1
g95
tp304
a(I2
g115
tp305
a(I0
g95
tp306
a(I1
g95
tp307
a(I2
g115
tp308
a(I0
g95
tp309
a(I1
g89
tp310
a(I2
g89
tp311
a(I0
g95
tp312
a(I1
g89
tp313
a(I2
g89
tp314
a(I0
g89
tp315
a(I1
g89
tp316
a(I2
g89
tp317
a(I0
g89
tp318
a(I1
g89
tp319
a(I2
g95
tp320
a(I0
g89
tp321
a(I1
g89
tp322
a(I2
g95
tp323
a(I0
g89
tp324
a(I1
g89
tp325
a(I2
g89
tp326
a(I0
g89
tp327
a(I1
g89
tp328
a(I2
g89
tp329
a(I0
g95
tp330
a(I1
g115
tp331
a(I2
g89
tp332
a(I0
g95
tp333
a(I1
g115
tp334
a(I2
g89
tp335
a(I0
g115
tp336
a(I1
g86
tp337
a(I2
g89
tp338
a(I0
g95
tp339
a(I1
g86
tp340
a(I2
g89
tp341
a(I0
g95
tp342
a(I1
g86
tp343
a(I2
g89
tp344
a(I0
g95
tp345
a(I1
g86
tp346
a(I2
g89
tp347
a(I0
g86
tp348
a(I1
g86
tp349
a(I2
g89
tp350
a(I0
g86
tp351
a(I1
g86
tp352
a(I2
g89
tp353
a(I0
g86
tp354
a(I1
g86
tp355
a(I2
g89
tp356
a(I0
g115
tp357
a(I1
g86
tp358
a(I2
g89
tp359
a(I0
g115
tp360
a(I1
g86
tp361
a(I2
g89
tp362
a(I0
g86
tp363
a(I1
g86
tp364
a(I2
g89
tp365
a(I0
g86
tp366
a(I1
g86
tp367
a(I2
g89
tp368
a(I0
g115
tp369
a(I1
g95
tp370
a(I2
g89
tp371
a(I0
g95
tp372
a(I1
g95
tp373
a(I2
g89
tp374
a(I0
g115
tp375
a(I1
g95
tp376
a(I2
g95
tp377
a(I0
g95
tp378
a(I1
g95
tp379
a(I2
g95
tp380
a(I0
g86
tp381
a(I1
g86
tp382
a(I2
g95
tp383
a(I0
g86
tp384
a(I1
g86
tp385
a(I2
g95
tp386
a(I0
g86
tp387
a(I1
g86
tp388
a(I2
g86
tp389
a(I0
g86
tp390
a(I1
g86
tp391
a(I2
g86
tp392
a(I0
g86
tp393
a(I1
g86
tp394
a(I2
g86
tp395
a(I0
g86
tp396
a(I1
g86
tp397
a(I2
g86
tp398
a(I0
g86
tp399
a(I1
g95
tp400
a(I2
g86
tp401
a(I0
g115
tp402
a(I1
g95
tp403
a(I2
g86
tp404
a(I0
g115
tp405
a(I1
g95
tp406
a(I2
g95
tp407
a(I0
g86
tp408
a(I1
g95
tp409
a(I2
g95
tp410
a(I0
S'Stop'
p411
tp412
a(I1
g95
tp413
a(I2
g95
tp414
a(I0
g86
tp415
a(I1
g95
tp416
a(I2
g95
tp417
a(I0
g89
tp418
a(I1
g95
tp419
a(I2
g86
tp420
a(I0
g89
tp421
a(I1
g95
tp422
a(I2
g86
tp423
a(I0
g115
tp424
a(I1
g89
tp425
a(I2
g86
tp426
a(I0
g115
tp427
a(I1
g89
tp428
a(I2
g86
tp429
a(I0
g89
tp430
a(I1
g89
tp431
a(I2
g86
tp432
a(I0
g89
tp433
a(I1
g89
tp434
a(I2
g86
tp435
a(I0
g89
tp436
a(I1
g89
tp437
a(I2
g115
tp438
a(I0
g89
tp439
a(I1
g89
tp440
a(I2
g115
tp441
a(I0
g89
tp442
a(I1
g115
tp443
a(I2
g86
tp444
a(I0
g89
tp445
a(I1
g115
tp446
a(I2
g86
tp447
a(I0
g89
tp448
a(I1
g115
tp449
a(I2
g115
tp450
a(I0
g89
tp451
a(I1
g115
tp452
a(I2
g115
tp453
a(I0
g89
tp454
a(I1
g115
tp455
a(I2
g89
tp456
a(I0
g115
tp457
a(I1
g115
tp458
a(I2
g89
tp459
a(I0
g115
tp460
a(I1
g115
tp461
a(I2
g89
tp462
a(I0
g89
tp463
a(I1
g115
tp464
a(I2
g89
tp465
a(I0
g89
tp466
a(I1
g115
tp467
a(I2
g86
tp468
a(I0
g89
tp469
a(I1
g115
tp470
a(I2
g95
tp471
a(I0
g95
tp472
a(I1
g89
tp473
a(I2
g95
tp474
a(I0
g95
tp475
a(I1
g89
tp476
a(I2
g89
tp477
a(I0
g95
tp478
as.