(dp1
S'layout'
p2
(ilayout
Layout
p3
(dp4
S'capsules'
p5
(lp6
(I18
I1
tp7
a(I1
I9
tp8
asS'numGhosts'
p9
I2
sS'food'
p10
(igame
Grid
p11
(dp12
S'CELLS_PER_INT'
p13
I30
sS'width'
p14
I20
sS'data'
p15
(lp16
(lp17
I00
aI00
aI00
aI00
aI00
aI00
aI00
aI00
aI00
aI00
aI00
aa(lp18
I00
aI01
aI01
aI01
aI01
aI01
aI01
aI01
aI01
aI00
aI00
aa(lp19
I00
aI01
aI00
aI00
aI00
aI01
aI00
aI00
aI00
aI01
aI00
aa(lp20
I00
aI01
aI00
aI01
aI01
aI01
aI01
aI01
aI00
aI01
aI00
aa(lp21
I00
aI01
aI01
aI01
aI00
aI01
aI00
aI01
aI01
aI01
aI00
aa(lp22
I00
aI00
aI00
aI01
aI00
aI01
aI00
aI01
aI00
aI00
aI00
aa(lp23
I00
aI01
aI01
aI01
aI01
aI01
aI01
aI01
aI01
aI01
aI00
aa(lp24
I00
aI01
aI00
aI01
aI00
aI00
aI00
aI01
aI00
aI01
aI00
aa(lp25
I00
aI01
aI00
aI01
aI00
aI00
aI00
aI01
aI00
aI01
aI00
aa(lp26
I00
aI00
aI00
aI01
aI00
aI00
aI00
aI01
aI00
aI01
aI00
aa(lp27
I00
aI01
aI00
aI01
aI00
aI00
aI00
aI01
aI00
aI01
aI00
aa(lp28
I00
aI01
aI00
aI01
aI00
aI00
aI00
aI01
aI00
aI01
aI00
aa(lp29
I00
aI01
aI00
aI01
aI00
aI00
aI00
aI01
aI00
aI01
aI00
aa(lp30
I00
aI01
aI01
aI01
aI01
aI01
aI01
aI01
aI01
aI01
aI00
aa(lp31
I00
aI00
aI00
aI01
aI00
aI01
aI00
aI01
aI00
aI00
aI00
aa(lp32
I00
aI01
aI01
aI01
aI00
aI01
aI00
aI01
aI01
aI01
aI00
aa(lp33
I00
aI01
aI00
aI01
aI01
aI01
aI01
aI01
aI00
aI01
aI00
aa(lp34
I00
aI01
aI00
aI00
aI00
aI01
aI00
aI00
aI00
aI01
aI00
aa(lp35
I00
aI00
aI01
aI01
aI01
aI01
aI01
aI01
aI01
aI01
aI00
aa(lp36
I00
aI00
aI00
aI00
aI00
aI00
aI00
aI00
aI00
aI00
aI00
aasS'height'
p37
I11
sbsS'agentPositions'
p38
(lp39
(I01
(I9
I1
tp40
tp41
a(I00
(I8
I5
tp42
tp43
a(I00
(I11
I5
tp44
tp45
asg37
I11
sg14
I20
sS'walls'
p46
(igame
Grid
p47
(dp48
g13
I30
sg14
I20
sg15
(lp49
(lp50
I01
aI01
aI01
aI01
aI01
aI01
aI01
aI01
aI01
aI01
aI01
aa(lp51
I01
aI00
aI00
aI00
aI00
aI00
aI00
aI00
aI00
aI00
aI01
aa(lp52
I01
aI00
aI01
aI01
aI01
aI00
aI01
aI01
aI01
aI00
aI01
aa(lp53
I01
aI00
aI01
aI00
aI00
aI00
aI00
aI00
aI01
aI00
aI01
aa(lp54
I01
aI00
aI00
aI00
aI01
aI00
aI01
aI00
aI00
aI00
aI01
aa(lp55
I01
aI01
aI01
aI00
aI01
aI00
aI01
aI00
aI01
aI01
aI01
aa(lp56
I01
aI00
aI00
aI00
aI00
aI00
aI00
aI00
aI00
aI00
aI01
aa(lp57
I01
aI00
aI01
aI00
aI01
aI01
aI01
aI00
aI01
aI00
aI01
aa(lp58
I01
aI00
aI01
aI00
aI01
aI00
aI01
aI00
aI01
aI00
aI01
aa(lp59
I01
aI00
aI01
aI00
aI01
aI00
aI00
aI00
aI01
aI00
aI01
aa(lp60
I01
aI00
aI01
aI00
aI01
aI00
aI00
aI00
aI01
aI00
aI01
aa(lp61
I01
aI00
aI01
aI00
aI01
aI00
aI01
aI00
aI01
aI00
aI01
aa(lp62
I01
aI00
aI01
aI00
aI01
aI01
aI01
aI00
aI01
aI00
aI01
aa(lp63
I01
aI00
aI00
aI00
aI00
aI00
aI00
aI00
aI00
aI00
aI01
aa(lp64
I01
aI01
aI01
aI00
aI01
aI00
aI01
aI00
aI01
aI01
aI01
aa(lp65
I01
aI00
aI00
aI00
aI01
aI00
aI01
aI00
aI00
aI00
aI01
aa(lp66
I01
aI00
aI01
aI00
aI00
aI00
aI00
aI00
aI01
aI00
aI01
aa(lp67
I01
aI00
aI01
aI01
aI01
aI00
aI01
aI01
aI01
aI00
aI01
aa(lp68
I01
aI00
aI00
aI00
aI00
aI00
aI00
aI00
aI00
aI00
aI01
aa(lp69
I01
aI01
aI01
aI01
aI01
aI01
aI01
aI01
aI01
aI01
aI01
aasg37
I11
sbsS'totalFood'
p70
I97
sS'layoutText'
p71
(lp72
S'%%%%%%%%%%%%%%%%%%%%'
p73
aS'%o...%........%....%'
p74
aS'%.%%.%.%%%%%%.%.%%.%'
p75
aS'%.%..............%.%'
p76
aS'%.%.%%.%%  %%.%%.%.%'
p77
aS'%......%G  G%......%'
p78
aS'%.%.%%.%%%%%%.%%.%.%'
p79
aS'%.%..............%.%'
p80
aS'%.%%.%.%%%%%%.%.%%.%'
p81
aS'%....%...P....%...o%'
p82
aS'%%%%%%%%%%%%%%%%%%%%'
p83
asbsS'actions'
p84
(lp85
(I0
S'West'
p86
tp87
a(I1
S'East'
p88
tp89
a(I2
g86
tp90
a(I0
g86
tp91
a(I1
g88
tp92
a(I2
S'North'
p93
tp94
a(I0
g86
tp95
a(I1
g88
tp96
a(I2
g86
tp97
a(I0
g93
tp98
a(I1
g86
tp99
a(I2
g93
tp100
a(I0
g93
tp101
a(I1
g86
tp102
a(I2
g86
tp103
a(I0
g88
tp104
a(I1
g86
tp105
a(I2
g86
tp106
a(I0
g88
tp107
a(I1
g88
tp108
a(I2
g86
tp109
a(I0
g88
tp110
a(I1
g88
tp111
a(I2
g86
tp112
a(I0
g88
tp113
a(I1
g88
tp114
a(I2
g86
tp115
a(I0
g88
tp116
a(I1
g86
tp117
a(I2
g93
tp118
a(I0
g88
tp119
a(I1
g93
tp120
a(I2
g93
tp121
a(I0
g88
tp122
a(I1
g93
tp123
a(I2
g86
tp124
a(I0
S'South'
p125
tp126
a(I1
g88
tp127
a(I2
g86
tp128
a(I0
g125
tp129
a(I1
g88
tp130
a(I2
g86
tp131
a(I0
g86
tp132
a(I1
g88
tp133
a(I2
g125
tp134
a(I0
g86
tp135
a(I1
g88
tp136
a(I2
g125
tp137
a(I0
g86
tp138
a(I1
g88
tp139
a(I2
g125
tp140
a(I0
g88
tp141
a(I1
g88
tp142
a(I2
g125
tp143
a(I0
g88
tp144
a(I1
g125
tp145
a(I2
g88
tp146
a(I0
g88
tp147
a(I1
g125
tp148
a(I2
g88
tp149
a(I0
g93
tp150
a(I1
g86
tp151
a(I2
g125
tp152
a(I0
g93
tp153
a(I1
g86
tp154
a(I2
g125
tp155
a(I0
g88
tp156
a(I1
g86
tp157
a(I2
g88
tp158
a(I0
g88
tp159
a(I1
g125
tp160
a(I2
g125
tp161
a(I0
g125
tp162
a(I1
g125
tp163
a(I2
g125
tp164
a(I0
g125
tp165
a(I1
g86
tp166
a(I2
g86
tp167
a(I0
g88
tp168
a(I1
g86
tp169
a(I2
g86
tp170
a(I0
g88
tp171
a(I1
g86
tp172
a(I2
g86
tp173
a(I0
g88
tp174
a(I1
g86
tp175
a(I2
g93
tp176
a(I0
g93
tp177
a(I1
g86
tp178
a(I2
g93
tp179
a(I0
g93
tp180
a(I1
g86
tp181
a(I2
g93
tp182
a(I0
g93
tp183
a(I1
g86
tp184
a(I2
g93
tp185
a(I0
g93
tp186
a(I1
g86
tp187
a(I2
g93
tp188
a(I0
g86
tp189
a(I1
g86
tp190
a(I2
g93
tp191
a(I0
g86
tp192
a(I1
g86
tp193
a(I2
g93
tp194
a(I0
g93
tp195
a(I1
g86
tp196
a(I2
g93
tp197
a(I0
g93
tp198
a(I1
g86
tp199
a(I2
g93
tp200
a(I0
g86
tp201
a(I1
g86
tp202
a(I2
g93
tp203
a(I0
g86
tp204
a(I1
g86
tp205
a(I2
g93
tp206
a(I0
g86
tp207
a(I1
g86
tp208
a(I2
g93
tp209
a(I0
g86
tp210
a(I1
g125
tp211
a(I2
g93
tp212
a(I0
g86
tp213
a(I1
g125
tp214
a(I2
g93
tp215
a(I0
g86
tp216
a(I1
g125
tp217
a(I2
g93
tp218
a(I0
g86
tp219
a(I1
g125
tp220
a(I2
g93
tp221
a(I0
g86
tp222
a(I1
g86
tp223
a(I2
g88
tp224
a(I0
g86
tp225
a(I1
g86
tp226
a(I2
g88
tp227
a(I0
g86
tp228
a(I1
g86
tp229
a(I2
g88
tp230
a(I0
g93
tp231
a(I1
g86
tp232
a(I2
g88
tp233
a(I0
g93
tp234
a(I1
g86
tp235
a(I2
g88
tp236
a(I0
g88
tp237
a(I1
g86
tp238
a(I2
g88
tp239
a(I0
g88
tp240
a(I1
g93
tp241
a(I2
g125
tp242
a(I0
g88
tp243
a(I1
g93
tp244
a(I2
g125
tp245
a(I0
g88
tp246
a(I1
g93
tp247
a(I2
g125
tp248
a(I0
g88
tp249
a(I1
g93
tp250
a(I2
g125
tp251
a(I0
g88
tp252
a(I1
g93
tp253
a(I2
g86
tp254
a(I0
g88
tp255
a(I1
g93
tp256
a(I2
g86
tp257
a(I0
g125
tp258
a(I1
g93
tp259
a(I2
g125
tp260
a(I0
g125
tp261
a(I1
g93
tp262
a(I2
g125
tp263
a(I0
g125
tp264
a(I1
g93
tp265
a(I2
g125
tp266
a(I0
g125
tp267
a(I1
g93
tp268
a(I2
g125
tp269
a(I0
g125
tp270
a(I1
g93
tp271
a(I2
g86
tp272
a(I0
g93
tp273
a(I1
g93
tp274
a(I2
g86
tp275
a(I0
g88
tp276
a(I1
g93
tp277
a(I2
g86
tp278
a(I0
g88
tp279
a(I1
g93
tp280
a(I2
g86
tp281
a(I0
g88
tp282
a(I1
g93
tp283
a(I2
g93
tp284
a(I0
g125
tp285
a(I1
g93
tp286
a(I2
g93
tp287
a(I0
g125
tp288
a(I1
g88
tp289
a(I2
g93
tp290
a(I0
g93
tp291
a(I1
g88
tp292
a(I2
g93
tp293
a(I0
g93
tp294
a(I1
g88
tp295
a(I2
g93
tp296
a(I0
g88
tp297
a(I1
g88
tp298
a(I2
g93
tp299
a(I0
g88
tp300
a(I1
g125
tp301
a(I2
g88
tp302
a(I0
g93
tp303
a(I1
g125
tp304
a(I2
g88
tp305
a(I0
g93
tp306
a(I1
g88
tp307
a(I2
g88
tp308
a(I0
g93
tp309
a(I1
g88
tp310
a(I2
g125
tp311
a(I0
g93
tp312
a(I1
g93
tp313
a(I2
g125
tp314
a(I0
g86
tp315
a(I1
g93
tp316
a(I2
g86
tp317
a(I0
g86
tp318
a(I1
g88
tp319
a(I2
g125
tp320
a(I0
g86
tp321
a(I1
g88
tp322
a(I2
g125
tp323
a(I0
g125
tp324
a(I1
g88
tp325
a(I2
g125
tp326
a(I0
g125
tp327
a(I1
g88
tp328
a(I2
g125
tp329
a(I0
g86
tp330
a(I1
g88
tp331
a(I2
g88
tp332
a(I0
g86
tp333
a(I1
g88
tp334
a(I2
g88
tp335
a(I0
g86
tp336
a(I1
g88
tp337
a(I2
g88
tp338
a(I0
g86
tp339
a(I1
g125
tp340
a(I2
g125
tp341
a(I0
g86
tp342
a(I1
g125
tp343
a(I2
g125
tp344
a(I0
g86
tp345
a(I1
g88
tp346
a(I2
g88
tp347
a(I0
g86
tp348
a(I1
g88
tp349
a(I2
g88
tp350
a(I0
g86
tp351
a(I1
g93
tp352
a(I2
g88
tp353
a(I0
g86
tp354
a(I1
g93
tp355
a(I2
g88
tp356
a(I0
g86
tp357
a(I1
g88
tp358
a(I2
g88
tp359
a(I0
g86
tp360
a(I1
g88
tp361
a(I2
g88
tp362
a(I0
g93
tp363
a(I1
g88
tp364
a(I2
g88
tp365
a(I0
g93
tp366
a(I1
g125
tp367
a(I2
g93
tp368
a(I0
g86
tp369
a(I1
g125
tp370
a(I2
g93
tp371
a(I0
g86
tp372
a(I1
g125
tp373
a(I2
g93
tp374
a(I0
g86
tp375
a(I1
g125
tp376
a(I2
g93
tp377
a(I0
g125
tp378
a(I1
g125
tp379
a(I2
g93
tp380
a(I0
g125
tp381
a(I1
g125
tp382
a(I2
g93
tp383
a(I0
g125
tp384
a(I1
g125
tp385
a(I2
g93
tp386
a(I0
g125
tp387
a(I1
g125
tp388
a(I2
g93
tp389
a(I0
g125
tp390
a(I1
g125
tp391
a(I2
g93
tp392
a(I0
g125
tp393
a(I1
g125
tp394
a(I2
g88
tp395
a(I0
g125
tp396
a(I1
g125
tp397
a(I2
g88
tp398
a(I0
g125
tp399
a(I1
g125
tp400
a(I2
g88
tp401
a(I0
g88
tp402
a(I1
g125
tp403
a(I2
g88
tp404
a(I0
g88
tp405
a(I1
g86
tp406
a(I2
g88
tp407
a(I0
g88
tp408
a(I1
g86
tp409
a(I2
g88
tp410
a(I0
g93
tp411
a(I1
g86
tp412
a(I2
g125
tp413
a(I0
g93
tp414
a(I1
g86
tp415
a(I2
g125
tp416
a(I0
g86
tp417
a(I1
g86
tp418
a(I2
g125
tp419
a(I0
g93
tp420
a(I1
g86
tp421
a(I2
g125
tp422
a(I0
g93
tp423
a(I1
g93
tp424
a(I2
g86
tp425
a(I0
g93
tp426
a(I1
g93
tp427
a(I2
g86
tp428
a(I0
g93
tp429
a(I1
g93
tp430
a(I2
g86
tp431
a(I0
g125
tp432
a(I1
g93
tp433
a(I2
g86
tp434
a(I0
g125
tp435
a(I1
g86
tp436
a(I2
g86
tp437
a(I0
g86
tp438
a(I1
g86
tp439
a(I2
g86
tp440
a(I0
g88
tp441
a(I1
g86
tp442
a(I2
g93
tp443
a(I0
g88
tp444
a(I1
g86
tp445
a(I2
g93
tp446
a(I0
g88
tp447
a(I1
g93
tp448
a(I2
g93
tp449
a(I0
g88
tp450
a(I1
g93
tp451
a(I2
g93
tp452
a(I0
g125
tp453
a(I1
g93
tp454
a(I2
g86
tp455
a(I0
g125
tp456
a(I1
g93
tp457
a(I2
g86
tp458
a(I0
g86
tp459
a(I1
g88
tp460
a(I2
g86
tp461
a(I0
g88
tp462
a(I1
g88
tp463
a(I2
g86
tp464
a(I0
g93
tp465
a(I1
g88
tp466
a(I2
g86
tp467
a(I0
g93
tp468
a(I1
g88
tp469
a(I2
g86
tp470
a(I0
g93
tp471
as.