(dp1
S'layout'
p2
(ilayout
Layout
p3
(dp4
S'capsules'
p5
(lp6
(I18
I1
tp7
a(I1
I9
tp8
asS'numGhosts'
p9
I2
sS'food'
p10
(igame
Grid
p11
(dp12
S'CELLS_PER_INT'
p13
I30
sS'width'
p14
I20
sS'data'
p15
(lp16
(lp17
I00
aI00
aI00
aI00
aI00
aI00
aI00
aI00
aI00
aI00
aI00
aa(lp18
I00
aI01
aI01
aI01
aI01
aI01
aI01
aI01
aI01
aI00
aI00
aa(lp19
I00
aI01
aI00
aI00
aI00
aI01
aI00
aI00
aI00
aI01
aI00
aa(lp20
I00
aI01
aI00
aI01
aI01
aI01
aI01
aI01
aI00
aI01
aI00
aa(lp21
I00
aI01
aI01
aI01
aI00
aI01
aI00
aI01
aI01
aI01
aI00
aa(lp22
I00
aI00
aI00
aI01
aI00
aI01
aI00
aI01
aI00
aI00
aI00
aa(lp23
I00
aI01
aI01
aI01
aI01
aI01
aI01
aI01
aI01
aI01
aI00
aa(lp24
I00
aI01
aI00
aI01
aI00
aI00
aI00
aI01
aI00
aI01
aI00
aa(lp25
I00
aI01
aI00
aI01
aI00
aI00
aI00
aI01
aI00
aI01
aI00
aa(lp26
I00
aI00
aI00
aI01
aI00
aI00
aI00
aI01
aI00
aI01
aI00
aa(lp27
I00
aI01
aI00
aI01
aI00
aI00
aI00
aI01
aI00
aI01
aI00
aa(lp28
I00
aI01
aI00
aI01
aI00
aI00
aI00
aI01
aI00
aI01
aI00
aa(lp29
I00
aI01
aI00
aI01
aI00
aI00
aI00
aI01
aI00
aI01
aI00
aa(lp30
I00
aI01
aI01
aI01
aI01
aI01
aI01
aI01
aI01
aI01
aI00
aa(lp31
I00
aI00
aI00
aI01
aI00
aI01
aI00
aI01
aI00
aI00
aI00
aa(lp32
I00
aI01
aI01
aI01
aI00
aI01
aI00
aI01
aI01
aI01
aI00
aa(lp33
I00
aI01
aI00
aI01
aI01
aI01
aI01
aI01
aI00
aI01
aI00
aa(lp34
I00
aI01
aI00
aI00
aI00
aI01
aI00
aI00
aI00
aI01
aI00
aa(lp35
I00
aI00
aI01
aI01
aI01
aI01
aI01
aI01
aI01
aI01
aI00
aa(lp36
I00
aI00
aI00
aI00
aI00
aI00
aI00
aI00
aI00
aI00
aI00
aasS'height'
p37
I11
sbsS'agentPositions'
p38
(lp39
(I01
(I9
I1
tp40
tp41
a(I00
(I8
I5
tp42
tp43
a(I00
(I11
I5
tp44
tp45
asg37
I11
sg14
I20
sS'walls'
p46
(igame
Grid
p47
(dp48
g13
I30
sg14
I20
sg15
(lp49
(lp50
I01
aI01
aI01
aI01
aI01
aI01
aI01
aI01
aI01
aI01
aI01
aa(lp51
I01
aI00
aI00
aI00
aI00
aI00
aI00
aI00
aI00
aI00
aI01
aa(lp52
I01
aI00
aI01
aI01
aI01
aI00
aI01
aI01
aI01
aI00
aI01
aa(lp53
I01
aI00
aI01
aI00
aI00
aI00
aI00
aI00
aI01
aI00
aI01
aa(lp54
I01
aI00
aI00
aI00
aI01
aI00
aI01
aI00
aI00
aI00
aI01
aa(lp55
I01
aI01
aI01
aI00
aI01
aI00
aI01
aI00
aI01
aI01
aI01
aa(lp56
I01
aI00
aI00
aI00
aI00
aI00
aI00
aI00
aI00
aI00
aI01
aa(lp57
I01
aI00
aI01
aI00
aI01
aI01
aI01
aI00
aI01
aI00
aI01
aa(lp58
I01
aI00
aI01
aI00
aI01
aI00
aI01
aI00
aI01
aI00
aI01
aa(lp59
I01
aI00
aI01
aI00
aI01
aI00
aI00
aI00
aI01
aI00
aI01
aa(lp60
I01
aI00
aI01
aI00
aI01
aI00
aI00
aI00
aI01
aI00
aI01
aa(lp61
I01
aI00
aI01
aI00
aI01
aI00
aI01
aI00
aI01
aI00
aI01
aa(lp62
I01
aI00
aI01
aI00
aI01
aI01
aI01
aI00
aI01
aI00
aI01
aa(lp63
I01
aI00
aI00
aI00
aI00
aI00
aI00
aI00
aI00
aI00
aI01
aa(lp64
I01
aI01
aI01
aI00
aI01
aI00
aI01
aI00
aI01
aI01
aI01
aa(lp65
I01
aI00
aI00
aI00
aI01
aI00
aI01
aI00
aI00
aI00
aI01
aa(lp66
I01
aI00
aI01
aI00
aI00
aI00
aI00
aI00
aI01
aI00
aI01
aa(lp67
I01
aI00
aI01
aI01
aI01
aI00
aI01
aI01
aI01
aI00
aI01
aa(lp68
I01
aI00
aI00
aI00
aI00
aI00
aI00
aI00
aI00
aI00
aI01
aa(lp69
I01
aI01
aI01
aI01
aI01
aI01
aI01
aI01
aI01
aI01
aI01
aasg37
I11
sbsS'totalFood'
p70
I97
sS'layoutText'
p71
(lp72
S'%%%%%%%%%%%%%%%%%%%%'
p73
aS'%o...%........%....%'
p74
aS'%.%%.%.%%%%%%.%.%%.%'
p75
aS'%.%..............%.%'
p76
aS'%.%.%%.%%  %%.%%.%.%'
p77
aS'%......%G  G%......%'
p78
aS'%.%.%%.%%%%%%.%%.%.%'
p79
aS'%.%..............%.%'
p80
aS'%.%%.%.%%%%%%.%.%%.%'
p81
aS'%....%...P....%...o%'
p82
aS'%%%%%%%%%%%%%%%%%%%%'
p83
asbsS'actions'
p84
(lp85
(I0
S'East'
p86
tp87
a(I1
g86
tp88
a(I2
S'West'
p89
tp90
a(I0
g86
tp91
a(I1
S'North'
p92
tp93
a(I2
g92
tp94
a(I0
g86
tp95
a(I1
g92
tp96
a(I2
g89
tp97
a(I0
g86
tp98
a(I1
g86
tp99
a(I2
g92
tp100
a(I0
g92
tp101
a(I1
S'South'
p102
tp103
a(I2
g89
tp104
a(I0
g92
tp105
a(I1
g102
tp106
a(I2
g89
tp107
a(I0
g92
tp108
a(I1
g89
tp109
a(I2
g89
tp110
a(I0
g92
tp111
a(I1
g89
tp112
a(I2
g92
tp113
a(I0
g92
tp114
a(I1
g86
tp115
a(I2
g92
tp116
a(I0
g92
tp117
a(I1
g86
tp118
a(I2
g86
tp119
a(I0
g86
tp120
a(I1
g92
tp121
a(I2
g86
tp122
a(I0
g89
tp123
a(I1
g92
tp124
a(I2
g86
tp125
a(I0
g89
tp126
a(I1
g89
tp127
a(I2
g86
tp128
a(I0
g89
tp129
a(I1
g89
tp130
a(I2
g86
tp131
a(I0
g89
tp132
a(I1
g89
tp133
a(I2
g86
tp134
a(I0
g89
tp135
a(I1
g89
tp136
a(I2
g86
tp137
a(I0
g89
tp138
a(I1
g92
tp139
a(I2
g102
tp140
a(I0
g89
tp141
a(I1
g92
tp142
a(I2
g102
tp143
a(I0
g89
tp144
a(I1
g86
tp145
a(I2
g102
tp146
a(I0
g92
tp147
a(I1
g86
tp148
a(I2
g102
tp149
a(I0
g92
tp150
a(I1
g86
tp151
a(I2
g86
tp152
a(I0
g86
tp153
a(I1
g86
tp154
a(I2
g86
tp155
a(I0
g86
tp156
a(I1
g86
tp157
a(I2
g86
tp158
a(I0
g86
tp159
a(I1
g86
tp160
a(I2
g92
tp161
a(I0
S'Stop'
p162
tp163
a(I1
g86
tp164
a(I2
g92
tp165
a(I0
g86
tp166
a(I1
g102
tp167
a(I2
g89
tp168
a(I0
g86
tp169
a(I1
g102
tp170
a(I2
g92
tp171
a(I0
g86
tp172
a(I1
g102
tp173
a(I2
g92
tp174
a(I0
g86
tp175
a(I1
g102
tp176
a(I2
g86
tp177
a(I0
g102
tp178
a(I1
g86
tp179
a(I2
g86
tp180
a(I0
g102
tp181
a(I1
g86
tp182
a(I2
g86
tp183
a(I0
g86
tp184
a(I1
g86
tp185
a(I2
g102
tp186
a(I0
g86
tp187
a(I1
g92
tp188
a(I2
g102
tp189
a(I0
g92
tp190
a(I1
g92
tp191
a(I2
g102
tp192
a(I0
g92
tp193
a(I1
g89
tp194
a(I2
g102
tp195
a(I0
g86
tp196
a(I1
g92
tp197
a(I2
g102
tp198
a(I0
g86
tp199
a(I1
g92
tp200
a(I2
g102
tp201
a(I0
g86
tp202
a(I1
g86
tp203
a(I2
g102
tp204
a(I0
g102
tp205
a(I1
g86
tp206
a(I2
g102
tp207
a(I0
g102
tp208
a(I1
g86
tp209
a(I2
g89
tp210
a(I0
g102
tp211
a(I1
g102
tp212
a(I2
g89
tp213
a(I0
g102
tp214
a(I1
g102
tp215
a(I2
g89
tp216
a(I0
g89
tp217
a(I1
g102
tp218
a(I2
g92
tp219
a(I0
g89
tp220
a(I1
g102
tp221
a(I2
g92
tp222
a(I0
g89
tp223
a(I1
g89
tp224
a(I2
g89
tp225
a(I0
g89
tp226
a(I1
g89
tp227
a(I2
g89
tp228
a(I0
g162
tp229
a(I1
g102
tp230
a(I2
g92
tp231
a(I0
g86
tp232
a(I1
g102
tp233
a(I2
g92
tp234
a(I0
g86
tp235
a(I1
g89
tp236
a(I2
g92
tp237
a(I0
g92
tp238
a(I1
g102
tp239
a(I2
g92
tp240
a(I0
g92
tp241
a(I1
g102
tp242
a(I2
g86
tp243
a(I0
g102
tp244
a(I1
g86
tp245
a(I2
g86
tp246
a(I0
g102
tp247
a(I1
g86
tp248
a(I2
g86
tp249
a(I0
g102
tp250
a(I1
g86
tp251
a(I2
g102
tp252
a(I0
g102
tp253
a(I1
g92
tp254
a(I2
g102
tp255
a(I0
g89
tp256
a(I1
g92
tp257
a(I2
g102
tp258
a(I0
g89
tp259
a(I1
g92
tp260
a(I2
g102
tp261
a(I0
g89
tp262
a(I1
g92
tp263
a(I2
g89
tp264
a(I0
g89
tp265
a(I1
g92
tp266
a(I2
g102
tp267
a(I0
g89
tp268
a(I1
g92
tp269
a(I2
g102
tp270
a(I0
g89
tp271
a(I1
g92
tp272
a(I2
g86
tp273
a(I0
g89
tp274
a(I1
g92
tp275
a(I2
g86
tp276
a(I0
g89
tp277
a(I1
g89
tp278
a(I2
g86
tp279
a(I0
g89
tp280
a(I1
g89
tp281
a(I2
g92
tp282
a(I0
g89
tp283
a(I1
g89
tp284
a(I2
g92
tp285
a(I0
g102
tp286
a(I1
g102
tp287
a(I2
g92
tp288
a(I0
g102
tp289
a(I1
g102
tp290
a(I2
g92
tp291
a(I0
g86
tp292
a(I1
g86
tp293
a(I2
g92
tp294
a(I0
g86
tp295
a(I1
g102
tp296
a(I2
g92
tp297
a(I0
g89
tp298
a(I1
g102
tp299
a(I2
g92
tp300
a(I0
g89
tp301
a(I1
g89
tp302
a(I2
g92
tp303
a(I0
g92
tp304
a(I1
g89
tp305
a(I2
g89
tp306
a(I0
g92
tp307
a(I1
g89
tp308
a(I2
g89
tp309
a(I0
g89
tp310
a(I1
g92
tp311
a(I2
g89
tp312
a(I0
g89
tp313
a(I1
g92
tp314
a(I2
g102
tp315
a(I0
g102
tp316
a(I1
g89
tp317
a(I2
g102
tp318
a(I0
g102
tp319
a(I1
g89
tp320
a(I2
g86
tp321
a(I0
g89
tp322
a(I1
g89
tp323
a(I2
g102
tp324
a(I0
g89
tp325
a(I1
g102
tp326
a(I2
g102
tp327
a(I0
g89
tp328
a(I1
g89
tp329
a(I2
g86
tp330
a(I0
g92
tp331
a(I1
g102
tp332
a(I2
g86
tp333
a(I0
g92
tp334
a(I1
g86
tp335
a(I2
g102
tp336
a(I0
g92
tp337
a(I1
g92
tp338
a(I2
g102
tp339
a(I0
g92
tp340
a(I1
g92
tp341
a(I2
g102
tp342
a(I0
g92
tp343
a(I1
g86
tp344
a(I2
g102
tp345
a(I0
g92
tp346
a(I1
g86
tp347
a(I2
g89
tp348
a(I0
g92
tp349
a(I1
g86
tp350
a(I2
g89
tp351
a(I0
g92
tp352
a(I1
g102
tp353
a(I2
g89
tp354
a(I0
g86
tp355
a(I1
g102
tp356
a(I2
g89
tp357
a(I0
g86
tp358
a(I1
g102
tp359
a(I2
g92
tp360
a(I0
g86
tp361
a(I1
g102
tp362
a(I2
g92
tp363
a(I0
g102
tp364
a(I1
g86
tp365
a(I2
g92
tp366
a(I0
g102
tp367
a(I1
g86
tp368
a(I2
g92
tp369
a(I0
g89
tp370
a(I1
g86
tp371
a(I2
g89
tp372
a(I0
g102
tp373
a(I1
g86
tp374
a(I2
g89
tp375
a(I0
g102
tp376
a(I1
g86
tp377
a(I2
g89
tp378
a(I0
g102
tp379
a(I1
g86
tp380
a(I2
g89
tp381
a(I0
g102
tp382
a(I1
g102
tp383
a(I2
g92
tp384
a(I0
g92
tp385
a(I1
g102
tp386
a(I2
g92
tp387
a(I0
g92
tp388
a(I1
g102
tp389
a(I2
g92
tp390
a(I0
g89
tp391
a(I1
g102
tp392
a(I2
g92
tp393
a(I0
g86
tp394
a(I1
g89
tp395
a(I2
g92
tp396
a(I0
g86
tp397
a(I1
g89
tp398
a(I2
g92
tp399
a(I0
g86
tp400
a(I1
g102
tp401
a(I2
g92
tp402
a(I0
g86
tp403
a(I1
g102
tp404
a(I2
g92
tp405
a(I0
g102
tp406
a(I1
g102
tp407
a(I2
g86
tp408
a(I0
g92
tp409
a(I1
g102
tp410
a(I2
g86
tp411
a(I0
g92
tp412
a(I1
g86
tp413
a(I2
g86
tp414
a(I0
g102
tp415
a(I1
g86
tp416
a(I2
g86
tp417
a(I0
g92
tp418
a(I1
g86
tp419
a(I2
g92
tp420
a(I0
g92
tp421
a(I1
g86
tp422
a(I2
g92
tp423
a(I0
g89
tp424
a(I1
g86
tp425
a(I2
g92
tp426
a(I0
g86
tp427
a(I1
g86
tp428
a(I2
g92
tp429
a(I0
g102
tp430
a(I1
g92
tp431
a(I2
g86
tp432
a(I0
g102
tp433
a(I1
g92
tp434
a(I2
g86
tp435
a(I0
g102
tp436
a(I1
g92
tp437
a(I2
g86
tp438
a(I0
g102
tp439
a(I1
g92
tp440
a(I2
g86
tp441
a(I0
g86
tp442
a(I1
g92
tp443
a(I2
g86
tp444
a(I0
g86
tp445
a(I1
g92
tp446
a(I2
g86
tp447
a(I0
g86
tp448
a(I1
g92
tp449
a(I2
g102
tp450
a(I0
g86
tp451
a(I1
g92
tp452
a(I2
g102
tp453
a(I0
g86
tp454
a(I1
g89
tp455
a(I2
g102
tp456
a(I0
g86
tp457
a(I1
g89
tp458
a(I2
g102
tp459
a(I0
g86
tp460
a(I1
g89
tp461
a(I2
g102
tp462
a(I0
g86
tp463
a(I1
g89
tp464
a(I2
g102
tp465
a(I0
g86
tp466
a(I1
g102
tp467
a(I2
g102
tp468
a(I0
g102
tp469
a(I1
g102
tp470
a(I2
g102
tp471
a(I0
g102
tp472
a(I1
g102
tp473
a(I2
g102
tp474
a(I0
g86
tp475
a(I1
g89
tp476
a(I2
g102
tp477
a(I0
g86
tp478
a(I1
g102
tp479
a(I2
g102
tp480
a(I0
g162
tp481
a(I1
g102
tp482
a(I2
g102
tp483
a(I0
g86
tp484
a(I1
g86
tp485
a(I2
g89
tp486
a(I0
g92
tp487
a(I1
g86
tp488
a(I2
g92
tp489
a(I0
g92
tp490
a(I1
g86
tp491
a(I2
g92
tp492
a(I0
g92
tp493
as.