(dp1
S'layout'
p2
(ilayout
Layout
p3
(dp4
S'capsules'
p5
(lp6
(I18
I1
tp7
a(I1
I9
tp8
asS'numGhosts'
p9
I2
sS'food'
p10
(igame
Grid
p11
(dp12
S'CELLS_PER_INT'
p13
I30
sS'width'
p14
I20
sS'data'
p15
(lp16
(lp17
I00
aI00
aI00
aI00
aI00
aI00
aI00
aI00
aI00
aI00
aI00
aa(lp18
I00
aI01
aI01
aI01
aI01
aI01
aI01
aI01
aI01
aI00
aI00
aa(lp19
I00
aI01
aI00
aI00
aI00
aI01
aI00
aI00
aI00
aI01
aI00
aa(lp20
I00
aI01
aI00
aI01
aI01
aI01
aI01
aI01
aI00
aI01
aI00
aa(lp21
I00
aI01
aI01
aI01
aI00
aI01
aI00
aI01
aI01
aI01
aI00
aa(lp22
I00
aI00
aI00
aI01
aI00
aI01
aI00
aI01
aI00
aI00
aI00
aa(lp23
I00
aI01
aI01
aI01
aI01
aI01
aI01
aI01
aI01
aI01
aI00
aa(lp24
I00
aI01
aI00
aI01
aI00
aI00
aI00
aI01
aI00
aI01
aI00
aa(lp25
I00
aI01
aI00
aI01
aI00
aI00
aI00
aI01
aI00
aI01
aI00
aa(lp26
I00
aI00
aI00
aI01
aI00
aI00
aI00
aI01
aI00
aI01
aI00
aa(lp27
I00
aI01
aI00
aI01
aI00
aI00
aI00
aI01
aI00
aI01
aI00
aa(lp28
I00
aI01
aI00
aI01
aI00
aI00
aI00
aI01
aI00
aI01
aI00
aa(lp29
I00
aI01
aI00
aI01
aI00
aI00
aI00
aI01
aI00
aI01
aI00
aa(lp30
I00
aI01
aI01
aI01
aI01
aI01
aI01
aI01
aI01
aI01
aI00
aa(lp31
I00
aI00
aI00
aI01
aI00
aI01
aI00
aI01
aI00
aI00
aI00
aa(lp32
I00
aI01
aI01
aI01
aI00
aI01
aI00
aI01
aI01
aI01
aI00
aa(lp33
I00
aI01
aI00
aI01
aI01
aI01
aI01
aI01
aI00
aI01
aI00
aa(lp34
I00
aI01
aI00
aI00
aI00
aI01
aI00
aI00
aI00
aI01
aI00
aa(lp35
I00
aI00
aI01
aI01
aI01
aI01
aI01
aI01
aI01
aI01
aI00
aa(lp36
I00
aI00
aI00
aI00
aI00
aI00
aI00
aI00
aI00
aI00
aI00
aasS'height'
p37
I11
sbsS'agentPositions'
p38
(lp39
(I01
(I9
I1
tp40
tp41
a(I00
(I8
I5
tp42
tp43
a(I00
(I11
I5
tp44
tp45
asg37
I11
sg14
I20
sS'walls'
p46
(igame
Grid
p47
(dp48
g13
I30
sg14
I20
sg15
(lp49
(lp50
I01
aI01
aI01
aI01
aI01
aI01
aI01
aI01
aI01
aI01
aI01
aa(lp51
I01
aI00
aI00
aI00
aI00
aI00
aI00
aI00
aI00
aI00
aI01
aa(lp52
I01
aI00
aI01
aI01
aI01
aI00
aI01
aI01
aI01
aI00
aI01
aa(lp53
I01
aI00
aI01
aI00
aI00
aI00
aI00
aI00
aI01
aI00
aI01
aa(lp54
I01
aI00
aI00
aI00
aI01
aI00
aI01
aI00
aI00
aI00
aI01
aa(lp55
I01
aI01
aI01
aI00
aI01
aI00
aI01
aI00
aI01
aI01
aI01
aa(lp56
I01
aI00
aI00
aI00
aI00
aI00
aI00
aI00
aI00
aI00
aI01
aa(lp57
I01
aI00
aI01
aI00
aI01
aI01
aI01
aI00
aI01
aI00
aI01
aa(lp58
I01
aI00
aI01
aI00
aI01
aI00
aI01
aI00
aI01
aI00
aI01
aa(lp59
I01
aI00
aI01
aI00
aI01
aI00
aI00
aI00
aI01
aI00
aI01
aa(lp60
I01
aI00
aI01
aI00
aI01
aI00
aI00
aI00
aI01
aI00
aI01
aa(lp61
I01
aI00
aI01
aI00
aI01
aI00
aI01
aI00
aI01
aI00
aI01
aa(lp62
I01
aI00
aI01
aI00
aI01
aI01
aI01
aI00
aI01
aI00
aI01
aa(lp63
I01
aI00
aI00
aI00
aI00
aI00
aI00
aI00
aI00
aI00
aI01
aa(lp64
I01
aI01
aI01
aI00
aI01
aI00
aI01
aI00
aI01
aI01
aI01
aa(lp65
I01
aI00
aI00
aI00
aI01
aI00
aI01
aI00
aI00
aI00
aI01
aa(lp66
I01
aI00
aI01
aI00
aI00
aI00
aI00
aI00
aI01
aI00
aI01
aa(lp67
I01
aI00
aI01
aI01
aI01
aI00
aI01
aI01
aI01
aI00
aI01
aa(lp68
I01
aI00
aI00
aI00
aI00
aI00
aI00
aI00
aI00
aI00
aI01
aa(lp69
I01
aI01
aI01
aI01
aI01
aI01
aI01
aI01
aI01
aI01
aI01
aasg37
I11
sbsS'totalFood'
p70
I97
sS'layoutText'
p71
(lp72
S'%%%%%%%%%%%%%%%%%%%%'
p73
aS'%o...%........%....%'
p74
aS'%.%%.%.%%%%%%.%.%%.%'
p75
aS'%.%..............%.%'
p76
aS'%.%.%%.%%  %%.%%.%.%'
p77
aS'%......%G  G%......%'
p78
aS'%.%.%%.%%%%%%.%%.%.%'
p79
aS'%.%..............%.%'
p80
aS'%.%%.%.%%%%%%.%.%%.%'
p81
aS'%....%...P....%...o%'
p82
aS'%%%%%%%%%%%%%%%%%%%%'
p83
asbsS'actions'
p84
(lp85
(I0
S'West'
p86
tp87
a(I1
S'East'
p88
tp89
a(I2
g86
tp90
a(I0
g86
tp91
a(I1
S'North'
p92
tp93
a(I2
g86
tp94
a(I0
g86
tp95
a(I1
g88
tp96
a(I2
g92
tp97
a(I0
g92
tp98
a(I1
g92
tp99
a(I2
g88
tp100
a(I0
S'South'
p101
tp102
a(I1
g88
tp103
a(I2
g101
tp104
a(I0
g92
tp105
a(I1
g88
tp106
a(I2
g88
tp107
a(I0
g92
tp108
a(I1
g88
tp109
a(I2
g86
tp110
a(I0
g86
tp111
a(I1
g88
tp112
a(I2
g86
tp113
a(I0
g86
tp114
a(I1
g88
tp115
a(I2
g86
tp116
a(I0
g101
tp117
a(I1
g92
tp118
a(I2
g88
tp119
a(I0
g101
tp120
a(I1
g92
tp121
a(I2
g88
tp122
a(I0
g86
tp123
a(I1
g88
tp124
a(I2
g92
tp125
a(I0
g86
tp126
a(I1
g88
tp127
a(I2
g92
tp128
a(I0
g86
tp129
a(I1
g88
tp130
a(I2
g86
tp131
a(I0
g92
tp132
a(I1
g101
tp133
a(I2
g101
tp134
a(I0
g92
tp135
a(I1
g101
tp136
a(I2
g101
tp137
a(I0
g92
tp138
a(I1
g101
tp139
a(I2
g88
tp140
a(I0
g92
tp141
a(I1
g101
tp142
a(I2
g88
tp143
a(I0
g92
tp144
a(I1
g101
tp145
a(I2
g86
tp146
a(I0
g92
tp147
a(I1
g101
tp148
a(I2
g86
tp149
a(I0
g92
tp150
a(I1
g101
tp151
a(I2
g86
tp152
a(I0
g92
tp153
a(I1
g101
tp154
a(I2
g88
tp155
a(I0
g88
tp156
a(I1
g101
tp157
a(I2
g88
tp158
a(I0
g88
tp159
a(I1
g86
tp160
a(I2
g88
tp161
a(I0
g88
tp162
a(I1
g86
tp163
a(I2
g88
tp164
a(I0
g101
tp165
a(I1
g86
tp166
a(I2
g92
tp167
a(I0
g101
tp168
a(I1
g86
tp169
a(I2
g92
tp170
a(I0
g86
tp171
a(I1
g86
tp172
a(I2
g86
tp173
a(I0
g101
tp174
a(I1
g86
tp175
a(I2
g86
tp176
a(I0
g101
tp177
a(I1
g92
tp178
a(I2
g92
tp179
a(I0
g88
tp180
a(I1
g92
tp181
a(I2
g92
tp182
a(I0
g88
tp183
a(I1
g92
tp184
a(I2
g86
tp185
a(I0
g88
tp186
a(I1
g92
tp187
a(I2
g86
tp188
a(I0
g101
tp189
a(I1
g88
tp190
a(I2
g86
tp191
a(I0
g101
tp192
a(I1
g88
tp193
a(I2
g86
tp194
a(I0
g88
tp195
a(I1
g92
tp196
a(I2
g86
tp197
a(I0
g88
tp198
a(I1
g92
tp199
a(I2
g86
tp200
a(I0
g88
tp201
a(I1
g92
tp202
a(I2
g86
tp203
a(I0
g88
tp204
a(I1
g92
tp205
a(I2
g86
tp206
a(I0
g88
tp207
a(I1
g92
tp208
a(I2
g86
tp209
a(I0
g88
tp210
a(I1
g92
tp211
a(I2
g86
tp212
a(I0
g88
tp213
a(I1
g92
tp214
a(I2
g86
tp215
a(I0
g88
tp216
a(I1
g92
tp217
a(I2
g86
tp218
a(I0
g88
tp219
a(I1
g86
tp220
a(I2
g101
tp221
a(I0
g88
tp222
a(I1
g86
tp223
a(I2
g101
tp224
a(I0
g92
tp225
a(I1
g86
tp226
a(I2
g101
tp227
a(I0
g92
tp228
a(I1
g86
tp229
a(I2
g101
tp230
a(I0
g86
tp231
a(I1
g86
tp232
a(I2
g86
tp233
a(I0
g86
tp234
a(I1
g86
tp235
a(I2
g86
tp236
a(I0
g88
tp237
a(I1
g101
tp238
a(I2
g86
tp239
a(I0
g86
tp240
a(I1
g101
tp241
a(I2
g86
tp242
a(I0
g86
tp243
a(I1
g101
tp244
a(I2
g92
tp245
a(I0
g92
tp246
a(I1
g88
tp247
a(I2
g92
tp248
a(I0
g92
tp249
a(I1
g92
tp250
a(I2
g92
tp251
a(I0
g92
tp252
a(I1
g92
tp253
a(I2
g92
tp254
a(I0
g92
tp255
a(I1
g86
tp256
a(I2
g92
tp257
a(I0
g86
tp258
a(I1
g86
tp259
a(I2
g92
tp260
a(I0
g86
tp261
a(I1
g86
tp262
a(I2
g92
tp263
a(I0
g86
tp264
a(I1
g92
tp265
a(I2
g92
tp266
a(I0
g86
tp267
a(I1
g92
tp268
a(I2
g88
tp269
a(I0
g86
tp270
a(I1
g88
tp271
a(I2
g88
tp272
a(I0
g86
tp273
as.