(dp1
S'layout'
p2
(ilayout
Layout
p3
(dp4
S'capsules'
p5
(lp6
(I18
I1
tp7
a(I1
I9
tp8
asS'numGhosts'
p9
I2
sS'food'
p10
(igame
Grid
p11
(dp12
S'CELLS_PER_INT'
p13
I30
sS'width'
p14
I20
sS'data'
p15
(lp16
(lp17
I00
aI00
aI00
aI00
aI00
aI00
aI00
aI00
aI00
aI00
aI00
aa(lp18
I00
aI01
aI01
aI01
aI01
aI01
aI01
aI01
aI01
aI00
aI00
aa(lp19
I00
aI01
aI00
aI00
aI00
aI01
aI00
aI00
aI00
aI01
aI00
aa(lp20
I00
aI01
aI00
aI01
aI01
aI01
aI01
aI01
aI00
aI01
aI00
aa(lp21
I00
aI01
aI01
aI01
aI00
aI01
aI00
aI01
aI01
aI01
aI00
aa(lp22
I00
aI00
aI00
aI01
aI00
aI01
aI00
aI01
aI00
aI00
aI00
aa(lp23
I00
aI01
aI01
aI01
aI01
aI01
aI01
aI01
aI01
aI01
aI00
aa(lp24
I00
aI01
aI00
aI01
aI00
aI00
aI00
aI01
aI00
aI01
aI00
aa(lp25
I00
aI01
aI00
aI01
aI00
aI00
aI00
aI01
aI00
aI01
aI00
aa(lp26
I00
aI00
aI00
aI01
aI00
aI00
aI00
aI01
aI00
aI01
aI00
aa(lp27
I00
aI01
aI00
aI01
aI00
aI00
aI00
aI01
aI00
aI01
aI00
aa(lp28
I00
aI01
aI00
aI01
aI00
aI00
aI00
aI01
aI00
aI01
aI00
aa(lp29
I00
aI01
aI00
aI01
aI00
aI00
aI00
aI01
aI00
aI01
aI00
aa(lp30
I00
aI01
aI01
aI01
aI01
aI01
aI01
aI01
aI01
aI01
aI00
aa(lp31
I00
aI00
aI00
aI01
aI00
aI01
aI00
aI01
aI00
aI00
aI00
aa(lp32
I00
aI01
aI01
aI01
aI00
aI01
aI00
aI01
aI01
aI01
aI00
aa(lp33
I00
aI01
aI00
aI01
aI01
aI01
aI01
aI01
aI00
aI01
aI00
aa(lp34
I00
aI01
aI00
aI00
aI00
aI01
aI00
aI00
aI00
aI01
aI00
aa(lp35
I00
aI00
aI01
aI01
aI01
aI01
aI01
aI01
aI01
aI01
aI00
aa(lp36
I00
aI00
aI00
aI00
aI00
aI00
aI00
aI00
aI00
aI00
aI00
aasS'height'
p37
I11
sbsS'agentPositions'
p38
(lp39
(I01
(I9
I1
tp40
tp41
a(I00
(I8
I5
tp42
tp43
a(I00
(I11
I5
tp44
tp45
asg37
I11
sg14
I20
sS'walls'
p46
(igame
Grid
p47
(dp48
g13
I30
sg14
I20
sg15
(lp49
(lp50
I01
aI01
aI01
aI01
aI01
aI01
aI01
aI01
aI01
aI01
aI01
aa(lp51
I01
aI00
aI00
aI00
aI00
aI00
aI00
aI00
aI00
aI00
aI01
aa(lp52
I01
aI00
aI01
aI01
aI01
aI00
aI01
aI01
aI01
aI00
aI01
aa(lp53
I01
aI00
aI01
aI00
aI00
aI00
aI00
aI00
aI01
aI00
aI01
aa(lp54
I01
aI00
aI00
aI00
aI01
aI00
aI01
aI00
aI00
aI00
aI01
aa(lp55
I01
aI01
aI01
aI00
aI01
aI00
aI01
aI00
aI01
aI01
aI01
aa(lp56
I01
aI00
aI00
aI00
aI00
aI00
aI00
aI00
aI00
aI00
aI01
aa(lp57
I01
aI00
aI01
aI00
aI01
aI01
aI01
aI00
aI01
aI00
aI01
aa(lp58
I01
aI00
aI01
aI00
aI01
aI00
aI01
aI00
aI01
aI00
aI01
aa(lp59
I01
aI00
aI01
aI00
aI01
aI00
aI00
aI00
aI01
aI00
aI01
aa(lp60
I01
aI00
aI01
aI00
aI01
aI00
aI00
aI00
aI01
aI00
aI01
aa(lp61
I01
aI00
aI01
aI00
aI01
aI00
aI01
aI00
aI01
aI00
aI01
aa(lp62
I01
aI00
aI01
aI00
aI01
aI01
aI01
aI00
aI01
aI00
aI01
aa(lp63
I01
aI00
aI00
aI00
aI00
aI00
aI00
aI00
aI00
aI00
aI01
aa(lp64
I01
aI01
aI01
aI00
aI01
aI00
aI01
aI00
aI01
aI01
aI01
aa(lp65
I01
aI00
aI00
aI00
aI01
aI00
aI01
aI00
aI00
aI00
aI01
aa(lp66
I01
aI00
aI01
aI00
aI00
aI00
aI00
aI00
aI01
aI00
aI01
aa(lp67
I01
aI00
aI01
aI01
aI01
aI00
aI01
aI01
aI01
aI00
aI01
aa(lp68
I01
aI00
aI00
aI00
aI00
aI00
aI00
aI00
aI00
aI00
aI01
aa(lp69
I01
aI01
aI01
aI01
aI01
aI01
aI01
aI01
aI01
aI01
aI01
aasg37
I11
sbsS'totalFood'
p70
I97
sS'layoutText'
p71
(lp72
S'%%%%%%%%%%%%%%%%%%%%'
p73
aS'%o...%........%....%'
p74
aS'%.%%.%.%%%%%%.%.%%.%'
p75
aS'%.%..............%.%'
p76
aS'%.%.%%.%%  %%.%%.%.%'
p77
aS'%......%G  G%......%'
p78
aS'%.%.%%.%%%%%%.%%.%.%'
p79
aS'%.%..............%.%'
p80
aS'%.%%.%.%%%%%%.%.%%.%'
p81
aS'%....%...P....%...o%'
p82
aS'%%%%%%%%%%%%%%%%%%%%'
p83
asbsS'actions'
p84
(lp85
(I0
S'West'
p86
tp87
a(I1
S'East'
p88
tp89
a(I2
g86
tp90
a(I0
g86
tp91
a(I1
S'North'
p92
tp93
a(I2
g92
tp94
a(I0
g86
tp95
a(I1
g88
tp96
a(I2
g92
tp97
a(I0
g92
tp98
a(I1
g92
tp99
a(I2
g86
tp100
a(I0
g92
tp101
a(I1
g86
tp102
a(I2
g86
tp103
a(I0
g86
tp104
a(I1
g86
tp105
a(I2
g86
tp106
a(I0
g86
tp107
a(I1
g86
tp108
a(I2
g86
tp109
a(I0
g86
tp110
a(I1
g86
tp111
a(I2
g86
tp112
a(I0
g92
tp113
a(I1
S'South'
p114
tp115
a(I2
g86
tp116
a(I0
S'Stop'
p117
tp118
a(I1
g114
tp119
a(I2
g86
tp120
a(I0
g92
tp121
a(I1
g86
tp122
a(I2
g114
tp123
a(I0
g86
tp124
a(I1
g86
tp125
a(I2
g114
tp126
a(I0
g86
tp127
a(I1
g86
tp128
a(I2
g114
tp129
a(I0
g114
tp130
a(I1
g92
tp131
a(I2
g114
tp132
a(I0
g114
tp133
a(I1
g92
tp134
a(I2
g88
tp135
a(I0
g114
tp136
a(I1
g88
tp137
a(I2
g114
tp138
a(I0
g114
tp139
a(I1
g88
tp140
a(I2
g114
tp141
a(I0
g88
tp142
a(I1
g88
tp143
a(I2
g86
tp144
a(I0
g86
tp145
a(I1
g88
tp146
a(I2
g86
tp147
a(I0
g92
tp148
a(I1
g88
tp149
a(I2
g86
tp150
a(I0
g92
tp151
a(I1
g88
tp152
a(I2
g92
tp153
a(I0
g92
tp154
a(I1
g114
tp155
a(I2
g92
tp156
a(I0
g92
tp157
a(I1
g114
tp158
a(I2
g92
tp159
a(I0
g92
tp160
a(I1
g86
tp161
a(I2
g92
tp162
a(I0
g92
tp163
a(I1
g88
tp164
a(I2
g92
tp165
a(I0
g92
tp166
a(I1
g92
tp167
a(I2
g92
tp168
a(I0
g92
tp169
a(I1
g92
tp170
a(I2
g92
tp171
a(I0
g88
tp172
a(I1
g92
tp173
a(I2
g92
tp174
a(I0
g88
tp175
a(I1
g86
tp176
a(I2
g92
tp177
a(I0
g88
tp178
a(I1
g86
tp179
a(I2
g92
tp180
a(I0
g114
tp181
a(I1
g86
tp182
a(I2
g88
tp183
a(I0
g117
tp184
a(I1
g86
tp185
a(I2
g88
tp186
a(I0
g114
tp187
a(I1
g86
tp188
a(I2
g88
tp189
a(I0
g88
tp190
a(I1
g86
tp191
a(I2
g88
tp192
a(I0
g86
tp193
a(I1
g86
tp194
a(I2
g88
tp195
a(I0
g86
tp196
a(I1
g86
tp197
a(I2
g88
tp198
a(I0
g88
tp199
a(I1
g86
tp200
a(I2
g114
tp201
a(I0
g88
tp202
a(I1
g88
tp203
a(I2
g114
tp204
a(I0
g88
tp205
a(I1
g88
tp206
a(I2
g114
tp207
a(I0
g92
tp208
a(I1
g88
tp209
a(I2
g114
tp210
a(I0
g92
tp211
a(I1
g86
tp212
a(I2
g86
tp213
a(I0
g88
tp214
a(I1
g92
tp215
a(I2
g86
tp216
a(I0
g88
tp217
a(I1
g86
tp218
a(I2
g114
tp219
a(I0
g88
tp220
a(I1
g92
tp221
a(I2
g114
tp222
a(I0
g88
tp223
a(I1
g88
tp224
a(I2
g114
tp225
a(I0
g88
tp226
a(I1
g114
tp227
a(I2
g114
tp228
a(I0
g88
tp229
a(I1
g86
tp230
a(I2
g88
tp231
a(I0
g88
tp232
a(I1
g114
tp233
a(I2
g88
tp234
a(I0
g114
tp235
a(I1
g88
tp236
a(I2
g88
tp237
a(I0
g114
tp238
a(I1
g92
tp239
a(I2
g88
tp240
a(I0
g88
tp241
a(I1
g92
tp242
a(I2
g88
tp243
a(I0
g88
tp244
a(I1
g88
tp245
a(I2
g88
tp246
a(I0
g88
tp247
a(I1
g88
tp248
a(I2
g114
tp249
a(I0
g114
tp250
a(I1
g88
tp251
a(I2
g114
tp252
a(I0
g114
tp253
a(I1
g114
tp254
a(I2
g114
tp255
a(I0
g114
tp256
a(I1
g114
tp257
a(I2
g114
tp258
a(I0
g114
tp259
a(I1
g114
tp260
a(I2
g88
tp261
a(I0
g86
tp262
a(I1
g114
tp263
a(I2
g88
tp264
a(I0
g114
tp265
a(I1
g86
tp266
a(I2
g88
tp267
a(I0
g114
tp268
a(I1
g86
tp269
a(I2
g88
tp270
a(I0
g88
tp271
a(I1
g86
tp272
a(I2
g88
tp273
a(I0
g88
tp274
a(I1
g86
tp275
a(I2
g88
tp276
a(I0
g88
tp277
a(I1
g86
tp278
a(I2
g88
tp279
a(I0
g92
tp280
a(I1
g86
tp281
a(I2
g88
tp282
a(I0
g92
tp283
a(I1
g86
tp284
a(I2
g88
tp285
a(I0
g92
tp286
a(I1
g86
tp287
a(I2
g88
tp288
a(I0
g92
tp289
a(I1
g86
tp290
a(I2
g88
tp291
a(I0
g92
tp292
a(I1
g86
tp293
a(I2
g88
tp294
a(I0
g92
tp295
a(I1
g114
tp296
a(I2
g88
tp297
a(I0
g92
tp298
a(I1
g114
tp299
a(I2
g88
tp300
a(I0
g92
tp301
a(I1
g114
tp302
a(I2
g92
tp303
a(I0
g86
tp304
a(I1
g114
tp305
a(I2
g92
tp306
a(I0
g86
tp307
a(I1
g88
tp308
a(I2
g92
tp309
a(I0
g86
tp310
a(I1
g88
tp311
a(I2
g92
tp312
a(I0
g114
tp313
a(I1
g88
tp314
a(I2
g92
tp315
a(I0
g114
tp316
a(I1
g88
tp317
a(I2
g92
tp318
a(I0
g86
tp319
a(I1
g88
tp320
a(I2
g92
tp321
a(I0
g88
tp322
a(I1
g88
tp323
a(I2
g92
tp324
a(I0
g117
tp325
a(I1
g88
tp326
a(I2
g88
tp327
a(I0
g88
tp328
a(I1
g88
tp329
a(I2
g88
tp330
a(I0
g114
tp331
a(I1
g88
tp332
a(I2
g88
tp333
a(I0
g114
tp334
a(I1
g88
tp335
a(I2
g88
tp336
a(I0
g88
tp337
a(I1
g88
tp338
a(I2
g88
tp339
a(I0
g86
tp340
a(I1
g88
tp341
a(I2
g88
tp342
a(I0
g86
tp343
a(I1
g88
tp344
a(I2
g114
tp345
a(I0
g86
tp346
a(I1
g88
tp347
a(I2
g114
tp348
a(I0
g86
tp349
a(I1
g92
tp350
a(I2
g114
tp351
a(I0
g92
tp352
a(I1
g92
tp353
a(I2
g114
tp354
a(I0
g114
tp355
a(I1
g92
tp356
a(I2
g114
tp357
a(I0
g117
tp358
a(I1
g92
tp359
a(I2
g114
tp360
a(I0
g117
tp361
a(I1
g86
tp362
a(I2
g114
tp363
a(I0
g117
tp364
a(I1
g86
tp365
a(I2
g114
tp366
a(I0
g114
tp367
a(I1
g86
tp368
a(I2
g86
tp369
a(I0
g117
tp370
a(I1
g86
tp371
a(I2
g86
tp372
a(I0
g114
tp373
a(I1
g86
tp374
a(I2
g86
tp375
a(I0
g114
tp376
a(I1
g86
tp377
a(I2
g86
tp378
a(I0
g114
tp379
a(I1
g86
tp380
a(I2
g86
tp381
a(I0
g117
tp382
a(I1
g86
tp383
a(I2
g86
tp384
a(I0
g86
tp385
a(I1
g86
tp386
a(I2
g86
tp387
a(I0
g86
tp388
a(I1
g86
tp389
a(I2
g86
tp390
a(I0
g86
tp391
a(I1
g86
tp392
a(I2
g86
tp393
a(I0
g88
tp394
a(I1
g86
tp395
a(I2
g86
tp396
a(I0
g88
tp397
a(I1
g86
tp398
a(I2
g86
tp399
a(I0
g88
tp400
a(I1
g92
tp401
a(I2
g86
tp402
a(I0
g92
tp403
a(I1
g92
tp404
a(I2
g86
tp405
a(I0
g92
tp406
a(I1
g92
tp407
a(I2
g86
tp408
a(I0
g88
tp409
a(I1
g92
tp410
a(I2
g86
tp411
a(I0
g86
tp412
a(I1
g86
tp413
a(I2
g114
tp414
a(I0
g86
tp415
a(I1
g86
tp416
a(I2
g114
tp417
a(I0
g86
tp418
a(I1
g86
tp419
a(I2
g88
tp420
a(I0
g86
tp421
a(I1
g114
tp422
a(I2
g88
tp423
a(I0
g86
tp424
a(I1
g114
tp425
a(I2
g88
tp426
a(I0
g86
tp427
a(I1
g88
tp428
a(I2
g88
tp429
a(I0
g86
tp430
a(I1
g88
tp431
a(I2
g88
tp432
a(I0
g86
tp433
a(I1
g88
tp434
a(I2
g88
tp435
a(I0
g117
tp436
a(I1
g92
tp437
a(I2
g88
tp438
a(I0
g92
tp439
a(I1
g92
tp440
a(I2
g92
tp441
a(I0
g92
tp442
a(I1
g88
tp443
a(I2
g92
tp444
a(I0
g86
tp445
a(I1
g88
tp446
a(I2
g92
tp447
a(I0
g86
tp448
a(I1
g88
tp449
a(I2
g92
tp450
a(I0
g86
tp451
a(I1
g114
tp452
a(I2
g88
tp453
a(I0
g92
tp454
a(I1
g114
tp455
a(I2
g88
tp456
a(I0
g92
tp457
a(I1
g86
tp458
a(I2
g88
tp459
a(I0
g88
tp460
a(I1
g88
tp461
a(I2
g114
tp462
a(I0
g88
tp463
a(I1
g88
tp464
a(I2
g114
tp465
a(I0
g88
tp466
a(I1
g88
tp467
a(I2
g86
tp468
a(I0
g88
tp469
a(I1
g86
tp470
a(I2
g86
tp471
a(I0
g88
tp472
a(I1
g86
tp473
a(I2
g86
tp474
a(I0
g88
tp475
a(I1
g92
tp476
a(I2
g86
tp477
a(I0
g88
tp478
a(I1
g88
tp479
a(I2
g86
tp480
a(I0
g88
tp481
a(I1
g114
tp482
a(I2
g86
tp483
a(I0
g88
tp484
a(I1
g86
tp485
a(I2
g86
tp486
a(I0
g86
tp487
a(I1
g86
tp488
a(I2
g86
tp489
a(I0
g86
tp490
a(I1
g88
tp491
a(I2
g86
tp492
a(I0
g86
tp493
a(I1
g88
tp494
a(I2
g86
tp495
a(I0
g86
tp496
a(I1
g92
tp497
a(I2
g86
tp498
a(I0
g86
tp499
a(I1
g92
tp500
a(I2
g86
tp501
a(I0
g86
tp502
a(I1
g86
tp503
a(I2
g114
tp504
a(I0
g114
tp505
a(I1
g114
tp506
a(I2
g114
tp507
a(I0
g114
tp508
a(I1
g88
tp509
a(I2
g86
tp510
a(I0
g114
tp511
a(I1
g114
tp512
a(I2
g86
tp513
a(I0
g114
tp514
a(I1
g88
tp515
a(I2
g86
tp516
a(I0
g86
tp517
a(I1
g86
tp518
a(I2
g92
tp519
a(I0
g86
tp520
a(I1
g92
tp521
a(I2
g92
tp522
a(I0
g114
tp523
a(I1
g92
tp524
a(I2
g92
tp525
a(I0
g114
tp526
a(I1
g86
tp527
a(I2
g92
tp528
a(I0
g86
tp529
as.